
Task1_source_code.elf:     file format elf32-avr

Sections:
Idx Name          Size      VMA       LMA       File off  Algn
  0 .text         000000c4  00000000  00000000  000000b4  2**1
                  CONTENTS, ALLOC, LOAD, READONLY, CODE
  1 .data         00000000  00800060  00000c88  00000d3c  2**0
                  ALLOC, LOAD, DATA
  2 .comment      0000002f  00000000  00000000  00000d3c  2**0
                  CONTENTS, READONLY
  3 .stack.descriptors.hdr 00000134  00000000  00000000  00000d6b  2**0
                  CONTENTS, READONLY
  4 .debug_aranges 00000260  00000000  00000000  00000ea0  2**3
                  CONTENTS, READONLY, DEBUGGING
  5 .debug_info   000039ce  00000000  00000000  00001100  2**0
                  CONTENTS, READONLY, DEBUGGING
  6 .debug_abbrev 00000cdc  00000000  00000000  00004ace  2**0
                  CONTENTS, READONLY, DEBUGGING
  7 .debug_line   00001731  00000000  00000000  000057aa  2**0
                  CONTENTS, READONLY, DEBUGGING
  8 .debug_frame  0000043c  00000000  00000000  00006edc  2**2
                  CONTENTS, READONLY, DEBUGGING
  9 .debug_str    0000036c  00000000  00000000  00007318  2**0
                  CONTENTS, READONLY, DEBUGGING
 10 .debug_loc    0000159e  00000000  00000000  00007684  2**0
                  CONTENTS, READONLY, DEBUGGING
 11 .debug_ranges 00000180  00000000  00000000  00008c22  2**0
                  CONTENTS, READONLY, DEBUGGING
 12 .text         00000004  00000c78  00000c78  00000d2c  2**1
                  CONTENTS, ALLOC, LOAD, READONLY, CODE
 13 .note.gnu.avr.deviceinfo 0000003c  00000000  00000000  00008da4  2**2
                  CONTENTS, READONLY, DEBUGGING
 14 .text.Initialize_E2PROM_State 00000016  00000b96  00000b96  00000c4a  2**1
                  CONTENTS, ALLOC, LOAD, READONLY, CODE
 15 .text.Read_E2PROM_State 0000000c  00000c1c  00000c1c  00000cd0  2**1
                  CONTENTS, ALLOC, LOAD, READONLY, CODE
 16 .text.check_State 00000076  000006dc  000006dc  00000790  2**1
                  CONTENTS, ALLOC, LOAD, READONLY, CODE
 17 .text.handle_State 000000c6  0000047c  0000047c  00000530  2**1
                  CONTENTS, ALLOC, LOAD, READONLY, CODE
 18 .text.handle_event 00000034  00000a66  00000a66  00000b1a  2**1
                  CONTENTS, ALLOC, LOAD, READONLY, CODE
 19 .text.UART_Transmit_State 0000003c  00000a2a  00000a2a  00000ade  2**1
                  CONTENTS, ALLOC, LOAD, READONLY, CODE
 20 .data.EEPROM_State_Add 00000001  00800060  00000c86  00000d3a  2**0
                  CONTENTS, ALLOC, LOAD, DATA
 21 .text.Initialize_TEMP_SENSOR 0000000c  00000c28  00000c28  00000cdc  2**1
                  CONTENTS, ALLOC, LOAD, READONLY, CODE
 22 .text.Read_TEMP_SENSOR 00000030  00000a9a  00000a9a  00000b4e  2**1
                  CONTENTS, ALLOC, LOAD, READONLY, CODE
 23 .text.DC_Initialize 00000050  0000087c  0000087c  00000930  2**1
                  CONTENTS, ALLOC, LOAD, READONLY, CODE
 24 .text.DC_Start 00000090  00000542  00000542  000005f6  2**1
                  CONTENTS, ALLOC, LOAD, READONLY, CODE
 25 .text.DC_Stop 0000004c  000008cc  000008cc  00000980  2**1
                  CONTENTS, ALLOC, LOAD, READONLY, CODE
 26 .text.DC_Change_Speed 00000024  00000af8  00000af8  00000bac  2**1
                  CONTENTS, ALLOC, LOAD, READONLY, CODE
 27 .text.main    00000090  000005d2  000005d2  00000686  2**1
                  CONTENTS, ALLOC, LOAD, READONLY, CODE
 28 .text.__vector_1 00000042  000009e8  000009e8  00000a9c  2**1
                  CONTENTS, ALLOC, LOAD, READONLY, CODE
 29 .data.Speed_Scale 00000001  00800061  00000c87  00000d3b  2**0
                  CONTENTS, ALLOC, LOAD, DATA
 30 .bss.V        00000001  00800062  00800062  00000d3c  2**0
                  ALLOC
 31 .bss.y        00000001  00800063  00800063  00000d3c  2**0
                  ALLOC
 32 .bss.buttonPressed 00000001  00800064  00800064  00000d3c  2**0
                  ALLOC
 33 .bss.currentState 00000001  00800065  00800065  00000d3c  2**0
                  ALLOC
 34 .text.ADC_Initialize 0000000e  00000be4  00000be4  00000c98  2**1
                  CONTENTS, ALLOC, LOAD, READONLY, CODE
 35 .text.ADC_Read 00000074  00000752  00000752  00000806  2**1
                  CONTENTS, ALLOC, LOAD, READONLY, CODE
 36 .text.DIO_SetPinDirection 000000e2  000001e4  000001e4  00000298  2**1
                  CONTENTS, ALLOC, LOAD, READONLY, CODE
 37 .text.DIO_SetPinValue 000000e2  000002c6  000002c6  0000037a  2**1
                  CONTENTS, ALLOC, LOAD, READONLY, CODE
 38 .text.External_Interrupt0_Initalize 00000058  00000824  00000824  000008d8  2**1
                  CONTENTS, ALLOC, LOAD, READONLY, CODE
 39 .text.UART_Initialize_WithoutInterrupt 00000120  000000c4  000000c4  00000178  2**1
                  CONTENTS, ALLOC, LOAD, READONLY, CODE
 40 .text.UART_Transmit_Character 0000000a  00000c4c  00000c4c  00000d00  2**1
                  CONTENTS, ALLOC, LOAD, READONLY, CODE
 41 .text.UART_Transmit_Word 0000001c  00000b60  00000b60  00000c14  2**1
                  CONTENTS, ALLOC, LOAD, READONLY, CODE
 42 .text         0000000a  00000c56  00000c56  00000d0a  2**1
                  CONTENTS, ALLOC, LOAD, READONLY, CODE
 43 .text         0000005e  000007c6  000007c6  0000087a  2**1
                  CONTENTS, ALLOC, LOAD, READONLY, CODE
 44 .text         0000007a  00000662  00000662  00000716  2**1
                  CONTENTS, ALLOC, LOAD, READONLY, CODE
 45 .text         00000048  00000918  00000918  000009cc  2**1
                  CONTENTS, ALLOC, LOAD, READONLY, CODE
 46 .text         00000044  00000960  00000960  00000a14  2**1
                  CONTENTS, ALLOC, LOAD, READONLY, CODE
 47 .text         0000000e  00000bf2  00000bf2  00000ca6  2**1
                  CONTENTS, ALLOC, LOAD, READONLY, CODE
 48 .text         0000000a  00000c60  00000c60  00000d14  2**1
                  CONTENTS, ALLOC, LOAD, READONLY, CODE
 49 .text         00000008  00000c6a  00000c6a  00000d1e  2**1
                  CONTENTS, ALLOC, LOAD, READONLY, CODE
 50 .text         000000d4  000003a8  000003a8  0000045c  2**1
                  CONTENTS, ALLOC, LOAD, READONLY, CODE
 51 .text         0000000c  00000c34  00000c34  00000ce8  2**1
                  CONTENTS, ALLOC, LOAD, READONLY, CODE
 52 .text         00000006  00000c72  00000c72  00000d26  2**1
                  CONTENTS, ALLOC, LOAD, READONLY, CODE
 53 .text         0000000e  00000c00  00000c00  00000cb4  2**1
                  CONTENTS, ALLOC, LOAD, READONLY, CODE
 54 .text         0000000e  00000c0e  00000c0e  00000cc2  2**1
                  CONTENTS, ALLOC, LOAD, READONLY, CODE
 55 .text         00000022  00000b1c  00000b1c  00000bd0  2**1
                  CONTENTS, ALLOC, LOAD, READONLY, CODE
 56 .text.libgcc.div 00000044  000009a4  000009a4  00000a58  2**1
                  CONTENTS, ALLOC, LOAD, READONLY, CODE
 57 .text.libgcc.div 0000002e  00000aca  00000aca  00000b7e  2**1
                  CONTENTS, ALLOC, LOAD, READONLY, CODE
 58 .text.libgcc.div 00000010  00000bd4  00000bd4  00000c88  2**1
                  CONTENTS, ALLOC, LOAD, READONLY, CODE
 59 .text.libgcc  0000000c  00000c40  00000c40  00000cf4  2**1
                  CONTENTS, ALLOC, LOAD, READONLY, CODE
 60 .text.__dummy_fini 00000002  00000c80  00000c80  00000d34  2**1
                  CONTENTS, ALLOC, LOAD, READONLY, CODE
 61 .text.__dummy_funcs_on_exit 00000002  00000c82  00000c82  00000d36  2**1
                  CONTENTS, ALLOC, LOAD, READONLY, CODE
 62 .text.__dummy_simulator_exit 00000002  00000c84  00000c84  00000d38  2**1
                  CONTENTS, ALLOC, LOAD, READONLY, CODE
 63 .text.exit    00000016  00000bac  00000bac  00000c60  2**1
                  CONTENTS, ALLOC, LOAD, READONLY, CODE
 64 .text._Exit   00000004  00000c7c  00000c7c  00000d30  2**1
                  CONTENTS, ALLOC, LOAD, READONLY, CODE
 65 .text.avrlibc 00000012  00000bc2  00000bc2  00000c76  2**1
                  CONTENTS, ALLOC, LOAD, READONLY, CODE
 66 .text.avrlibc 00000022  00000b3e  00000b3e  00000bf2  2**1
                  CONTENTS, ALLOC, LOAD, READONLY, CODE
 67 .text.avrlibc 0000001a  00000b7c  00000b7c  00000c30  2**1
                  CONTENTS, ALLOC, LOAD, READONLY, CODE

Disassembly of section .text:

00000000 <__vectors>:
   0:	0c 94 38 00 	jmp	0x70	; 0x70 <__ctors_end>
   4:	0c 94 f4 04 	jmp	0x9e8	; 0x9e8 <__vector_1>
   8:	0c 94 3c 06 	jmp	0xc78	; 0xc78 <__bad_interrupt>
   c:	0c 94 3c 06 	jmp	0xc78	; 0xc78 <__bad_interrupt>
  10:	0c 94 3c 06 	jmp	0xc78	; 0xc78 <__bad_interrupt>
  14:	0c 94 3c 06 	jmp	0xc78	; 0xc78 <__bad_interrupt>
  18:	0c 94 3c 06 	jmp	0xc78	; 0xc78 <__bad_interrupt>
  1c:	0c 94 3c 06 	jmp	0xc78	; 0xc78 <__bad_interrupt>
  20:	0c 94 3c 06 	jmp	0xc78	; 0xc78 <__bad_interrupt>
  24:	0c 94 3c 06 	jmp	0xc78	; 0xc78 <__bad_interrupt>
  28:	0c 94 3c 06 	jmp	0xc78	; 0xc78 <__bad_interrupt>
  2c:	0c 94 3c 06 	jmp	0xc78	; 0xc78 <__bad_interrupt>
  30:	0c 94 3c 06 	jmp	0xc78	; 0xc78 <__bad_interrupt>
  34:	0c 94 3c 06 	jmp	0xc78	; 0xc78 <__bad_interrupt>
  38:	0c 94 3c 06 	jmp	0xc78	; 0xc78 <__bad_interrupt>
  3c:	0c 94 3c 06 	jmp	0xc78	; 0xc78 <__bad_interrupt>
  40:	0c 94 3c 06 	jmp	0xc78	; 0xc78 <__bad_interrupt>
  44:	0c 94 3c 06 	jmp	0xc78	; 0xc78 <__bad_interrupt>
  48:	0c 94 3c 06 	jmp	0xc78	; 0xc78 <__bad_interrupt>
  4c:	0c 94 3c 06 	jmp	0xc78	; 0xc78 <__bad_interrupt>
  50:	0c 94 3c 06 	jmp	0xc78	; 0xc78 <__bad_interrupt>
  54:	b6 03       	fmuls	r19, r22
  56:	ba 03       	fmulsu	r19, r18
  58:	bf 03       	fmulsu	r19, r23
  5a:	c4 03       	fmuls	r20, r20
  5c:	c9 03       	fmulsu	r20, r17
  5e:	ce 03       	fmulsu	r20, r22
  60:	d3 03       	fmuls	r21, r19
  62:	d8 03       	fmulsu	r21, r16

00000064 <.dinit>:
  64:	00 60       	ori	r16, 0x00	; 0
  66:	00 62       	ori	r16, 0x20	; 32
  68:	00 0c       	add	r0, r0
  6a:	86 00       	.word	0x0086	; ????
  6c:	62 00       	.word	0x0062	; ????
  6e:	66 80       	ldd	r6, Z+6	; 0x06

00000070 <__ctors_end>:
  70:	11 24       	eor	r1, r1
  72:	1f be       	out	0x3f, r1	; 63
  74:	cf e5       	ldi	r28, 0x5F	; 95
  76:	d8 e0       	ldi	r29, 0x08	; 8
  78:	de bf       	out	0x3e, r29	; 62
  7a:	cd bf       	out	0x3d, r28	; 61

0000007c <__do_copy_data>:
  7c:	e4 e6       	ldi	r30, 0x64	; 100
  7e:	f0 e0       	ldi	r31, 0x00	; 0
  80:	40 e0       	ldi	r20, 0x00	; 0
  82:	17 c0       	rjmp	.+46     	; 0xb2 <__do_clear_bss+0x8>
  84:	b5 91       	lpm	r27, Z+
  86:	a5 91       	lpm	r26, Z+
  88:	35 91       	lpm	r19, Z+
  8a:	25 91       	lpm	r18, Z+
  8c:	05 91       	lpm	r16, Z+
  8e:	07 fd       	sbrc	r16, 7
  90:	0c c0       	rjmp	.+24     	; 0xaa <__do_clear_bss>
  92:	95 91       	lpm	r25, Z+
  94:	85 91       	lpm	r24, Z+
  96:	ef 01       	movw	r28, r30
  98:	f9 2f       	mov	r31, r25
  9a:	e8 2f       	mov	r30, r24
  9c:	05 90       	lpm	r0, Z+
  9e:	0d 92       	st	X+, r0
  a0:	a2 17       	cp	r26, r18
  a2:	b3 07       	cpc	r27, r19
  a4:	d9 f7       	brne	.-10     	; 0x9c <__do_copy_data+0x20>
  a6:	fe 01       	movw	r30, r28
  a8:	04 c0       	rjmp	.+8      	; 0xb2 <__do_clear_bss+0x8>

000000aa <__do_clear_bss>:
  aa:	1d 92       	st	X+, r1
  ac:	a2 17       	cp	r26, r18
  ae:	b3 07       	cpc	r27, r19
  b0:	e1 f7       	brne	.-8      	; 0xaa <__do_clear_bss>
  b2:	e0 37       	cpi	r30, 0x70	; 112
  b4:	f4 07       	cpc	r31, r20
  b6:	31 f7       	brne	.-52     	; 0x84 <__do_copy_data+0x8>
  b8:	0e 94 e9 02 	call	0x5d2	; 0x5d2 <main>
  bc:	0c 94 d6 05 	jmp	0xbac	; 0xbac <exit>

000000c0 <_exit>:
  c0:	f8 94       	cli

000000c2 <__stop_program>:
  c2:	ff cf       	rjmp	.-2      	; 0xc2 <__stop_program>

Disassembly of section .text:

00000c78 <__bad_interrupt>:
 c78:	0c 94 00 00 	jmp	0	; 0x0 <__TEXT_REGION_ORIGIN__>

Disassembly of section .text.Initialize_E2PROM_State:

00000b96 <Initialize_E2PROM_State>:
uint8_t EEPROM_State_Add=0b01000000;	//any place

void Initialize_E2PROM_State(void){
	
	/* It should have a normal state first	*/
	eeprom_update_byte (&EEPROM_State_Add, (uint8_t)Normal_state);	
 b96:	60 e0       	ldi	r22, 0x00	; 0
 b98:	80 e6       	ldi	r24, 0x60	; 96
 b9a:	90 e0       	ldi	r25, 0x00	; 0
 b9c:	0e 94 9f 05 	call	0xb3e	; 0xb3e <eeprom_update_byte>
	eeprom_update_byte (&EEPROM_State_Add, (uint8_t)Normal_state);	
 ba0:	60 e0       	ldi	r22, 0x00	; 0
 ba2:	80 e6       	ldi	r24, 0x60	; 96
 ba4:	90 e0       	ldi	r25, 0x00	; 0
 ba6:	0e 94 9f 05 	call	0xb3e	; 0xb3e <eeprom_update_byte>
 baa:	08 95       	ret

Disassembly of section .text.Read_E2PROM_State:

00000c1c <Read_E2PROM_State>:
}

uint8_t Read_E2PROM_State (void){
	
	/*	read the state	*/
	uint8_t x= eeprom_read_byte (&EEPROM_State_Add); 		
 c1c:	60 e6       	ldi	r22, 0x60	; 96
 c1e:	70 e0       	ldi	r23, 0x00	; 0
 c20:	80 e8       	ldi	r24, 0x80	; 128
 c22:	0e 94 e1 05 	call	0xbc2	; 0xbc2 <eeprom_read_byte>
	return x;
}
 c26:	08 95       	ret

Disassembly of section .text.check_State:

000006dc <check_State>:
	/*	check the state	*/
	check_State(T,S);
	handle_State(T,DC_fan,Speed,S);
}

void check_State(temp T,E2PROM_State* S){
 6dc:	cf 92       	push	r12
 6de:	df 92       	push	r13
 6e0:	ef 92       	push	r14
 6e2:	ff 92       	push	r15
 6e4:	cf 93       	push	r28
 6e6:	df 93       	push	r29
 6e8:	eb 01       	movw	r28, r22
	
	/*	check if the state is changed	*/
	if(T<50.0 && *S!=Normal_state){
 6ea:	bc 01       	movw	r22, r24
 6ec:	80 e0       	ldi	r24, 0x00	; 0
 6ee:	90 e0       	ldi	r25, 0x00	; 0
 6f0:	0e 94 31 03 	call	0x662	; 0x662 <__floatunsisf>
 6f4:	6b 01       	movw	r12, r22
 6f6:	7c 01       	movw	r14, r24
 6f8:	20 e0       	ldi	r18, 0x00	; 0
 6fa:	30 e0       	ldi	r19, 0x00	; 0
 6fc:	48 e4       	ldi	r20, 0x48	; 72
 6fe:	52 e4       	ldi	r21, 0x42	; 66
 700:	0e 94 2b 06 	call	0xc56	; 0xc56 <__cmpsf2>
 704:	88 23       	and	r24, r24
 706:	54 f4       	brge	.+20     	; 0x71c <check_State+0x40>
 708:	88 81       	ld	r24, Y
 70a:	88 23       	and	r24, r24
 70c:	39 f0       	breq	.+14     	; 0x71c <check_State+0x40>
		*S=Normal_state;
 70e:	18 82       	st	Y, r1
		eeprom_write_byte (&EEPROM_State_Add, *S);
 710:	60 e0       	ldi	r22, 0x00	; 0
 712:	80 e6       	ldi	r24, 0x60	; 96
 714:	90 e0       	ldi	r25, 0x00	; 0
 716:	0e 94 be 05 	call	0xb7c	; 0xb7c <eeprom_write_byte>
 71a:	14 c0       	rjmp	.+40     	; 0x744 <check_State+0x68>
		//stop timer
	}
	else if(T>=50.0 && *S!=Emergency_state){
 71c:	20 e0       	ldi	r18, 0x00	; 0
 71e:	30 e0       	ldi	r19, 0x00	; 0
 720:	48 e4       	ldi	r20, 0x48	; 72
 722:	52 e4       	ldi	r21, 0x42	; 66
 724:	c7 01       	movw	r24, r14
 726:	b6 01       	movw	r22, r12
 728:	0e 94 30 06 	call	0xc60	; 0xc60 <__gesf2>
 72c:	88 23       	and	r24, r24
 72e:	54 f0       	brlt	.+20     	; 0x744 <check_State+0x68>
 730:	88 81       	ld	r24, Y
 732:	81 30       	cpi	r24, 0x01	; 1
 734:	39 f0       	breq	.+14     	; 0x744 <check_State+0x68>
		*S=Emergency_state;
 736:	81 e0       	ldi	r24, 0x01	; 1
 738:	88 83       	st	Y, r24
		eeprom_write_byte (&EEPROM_State_Add, *S);
 73a:	61 e0       	ldi	r22, 0x01	; 1
 73c:	80 e6       	ldi	r24, 0x60	; 96
 73e:	90 e0       	ldi	r25, 0x00	; 0
 740:	0e 94 be 05 	call	0xb7c	; 0xb7c <eeprom_write_byte>
		//start timer
	}
	
}
 744:	df 91       	pop	r29
 746:	cf 91       	pop	r28
 748:	ff 90       	pop	r15
 74a:	ef 90       	pop	r14
 74c:	df 90       	pop	r13
 74e:	cf 90       	pop	r12
 750:	08 95       	ret

Disassembly of section .text.handle_State:

0000047c <handle_State>:
}

void Write_E2PROM_State( E2PROM_State state){
	
	/*	write the state	*/
	eeprom_write_byte (&EEPROM_State_Add, (uint8_t)state); 
 47c:	cf 92       	push	r12
 47e:	df 92       	push	r13
 480:	ef 92       	push	r14
 482:	ff 92       	push	r15
 484:	0f 93       	push	r16
 486:	1f 93       	push	r17
 488:	cf 93       	push	r28
 48a:	df 93       	push	r29
 48c:	ec 01       	movw	r28, r24
 48e:	f9 01       	movw	r30, r18
 490:	90 81       	ld	r25, Z
 492:	91 11       	cpse	r25, r1
 494:	4d c0       	rjmp	.+154    	; 0x530 <handle_State+0xb4>
 496:	14 2f       	mov	r17, r20
 498:	06 2f       	mov	r16, r22
 49a:	be 01       	movw	r22, r28
 49c:	80 e0       	ldi	r24, 0x00	; 0
 49e:	90 e0       	ldi	r25, 0x00	; 0
 4a0:	0e 94 31 03 	call	0x662	; 0x662 <__floatunsisf>
 4a4:	6b 01       	movw	r12, r22
 4a6:	7c 01       	movw	r14, r24
 4a8:	20 e0       	ldi	r18, 0x00	; 0
 4aa:	30 e0       	ldi	r19, 0x00	; 0
 4ac:	40 ea       	ldi	r20, 0xA0	; 160
 4ae:	51 e4       	ldi	r21, 0x41	; 65
 4b0:	0e 94 2b 06 	call	0xc56	; 0xc56 <__cmpsf2>
 4b4:	18 16       	cp	r1, r24
 4b6:	24 f0       	brlt	.+8      	; 0x4c0 <handle_State+0x44>
 4b8:	80 2f       	mov	r24, r16
 4ba:	0e 94 66 04 	call	0x8cc	; 0x8cc <DC_Stop>
 4be:	38 c0       	rjmp	.+112    	; 0x530 <handle_State+0xb4>
 4c0:	20 e0       	ldi	r18, 0x00	; 0
 4c2:	30 e0       	ldi	r19, 0x00	; 0
 4c4:	40 ea       	ldi	r20, 0xA0	; 160
 4c6:	51 e4       	ldi	r21, 0x41	; 65
 4c8:	c7 01       	movw	r24, r14
 4ca:	b6 01       	movw	r22, r12
 4cc:	0e 94 30 06 	call	0xc60	; 0xc60 <__gesf2>
 4d0:	18 16       	cp	r1, r24
 4d2:	14 f5       	brge	.+68     	; 0x518 <handle_State+0x9c>
 4d4:	20 e0       	ldi	r18, 0x00	; 0
 4d6:	30 e0       	ldi	r19, 0x00	; 0
 4d8:	40 e2       	ldi	r20, 0x20	; 32
 4da:	52 e4       	ldi	r21, 0x42	; 66
 4dc:	c7 01       	movw	r24, r14
 4de:	b6 01       	movw	r22, r12
 4e0:	0e 94 2b 06 	call	0xc56	; 0xc56 <__cmpsf2>
 4e4:	18 16       	cp	r1, r24
 4e6:	c4 f0       	brlt	.+48     	; 0x518 <handle_State+0x9c>
 4e8:	60 e0       	ldi	r22, 0x00	; 0
 4ea:	80 2f       	mov	r24, r16
 4ec:	0e 94 a1 02 	call	0x542	; 0x542 <DC_Start>
 4f0:	81 e0       	ldi	r24, 0x01	; 1
 4f2:	1a 3f       	cpi	r17, 0xFA	; 250
 4f4:	08 f4       	brcc	.+2      	; 0x4f8 <handle_State+0x7c>
 4f6:	80 e0       	ldi	r24, 0x00	; 0
 4f8:	90 e0       	ldi	r25, 0x00	; 0
 4fa:	8c 9f       	mul	r24, r28
 4fc:	b0 01       	movw	r22, r0
 4fe:	8d 9f       	mul	r24, r29
 500:	70 0d       	add	r23, r0
 502:	9c 9f       	mul	r25, r28
 504:	70 0d       	add	r23, r0
 506:	11 24       	eor	r1, r1
 508:	66 0f       	add	r22, r22
 50a:	77 1f       	adc	r23, r23
 50c:	66 0f       	add	r22, r22
 50e:	77 1f       	adc	r23, r23
 510:	80 2f       	mov	r24, r16
 512:	0e 94 7c 05 	call	0xaf8	; 0xaf8 <DC_Change_Speed>
 516:	0c c0       	rjmp	.+24     	; 0x530 <handle_State+0xb4>
 518:	a9 97       	sbiw	r28, 0x29	; 41
 51a:	2a 97       	sbiw	r28, 0x0a	; 10
 51c:	48 f4       	brcc	.+18     	; 0x530 <handle_State+0xb4>
 51e:	60 e0       	ldi	r22, 0x00	; 0
 520:	80 2f       	mov	r24, r16
 522:	0e 94 a1 02 	call	0x542	; 0x542 <DC_Start>
 526:	60 ea       	ldi	r22, 0xA0	; 160
 528:	70 e0       	ldi	r23, 0x00	; 0
 52a:	80 2f       	mov	r24, r16
 52c:	0e 94 7c 05 	call	0xaf8	; 0xaf8 <DC_Change_Speed>
 530:	df 91       	pop	r29
 532:	cf 91       	pop	r28
 534:	1f 91       	pop	r17
 536:	0f 91       	pop	r16
 538:	ff 90       	pop	r15
 53a:	ef 90       	pop	r14
 53c:	df 90       	pop	r13
 53e:	cf 90       	pop	r12
 540:	08 95       	ret

Disassembly of section .text.handle_event:

00000a66 <handle_event>:
}


void handle_event(temp T,dc_motor DC_fan,uint8_t Speed, E2PROM_State* S){
 a66:	ef 92       	push	r14
 a68:	ff 92       	push	r15
 a6a:	0f 93       	push	r16
 a6c:	1f 93       	push	r17
 a6e:	cf 93       	push	r28
 a70:	df 93       	push	r29
 a72:	ec 01       	movw	r28, r24
 a74:	f6 2e       	mov	r15, r22
 a76:	e4 2e       	mov	r14, r20
 a78:	89 01       	movw	r16, r18
	
	/*	check the state	*/
	check_State(T,S);
 a7a:	b9 01       	movw	r22, r18
 a7c:	0e 94 6e 03 	call	0x6dc	; 0x6dc <check_State>
	handle_State(T,DC_fan,Speed,S);
 a80:	98 01       	movw	r18, r16
 a82:	4e 2d       	mov	r20, r14
 a84:	6f 2d       	mov	r22, r15
 a86:	ce 01       	movw	r24, r28
 a88:	0e 94 3e 02 	call	0x47c	; 0x47c <handle_State>
}
 a8c:	df 91       	pop	r29
 a8e:	cf 91       	pop	r28
 a90:	1f 91       	pop	r17
 a92:	0f 91       	pop	r16
 a94:	ff 90       	pop	r15
 a96:	ef 90       	pop	r14
 a98:	08 95       	ret

Disassembly of section .text.UART_Transmit_State:

00000a2a <UART_Transmit_State>:
	}
	//stop fan	
}

void UART_Transmit_State(const temp T,uint8_t *bot1f){
	if (T>=50)
 a2a:	82 33       	cpi	r24, 0x32	; 50
 a2c:	91 05       	cpc	r25, r1
 a2e:	38 f0       	brcs	.+14     	; 0xa3e <UART_Transmit_State+0x14>
	{
		/* Reset the flag	*/
		*bot1f=0;
 a30:	fb 01       	movw	r30, r22
 a32:	10 82       	st	Z, r1
		//send the emergency signal
		uart_status x=UART_Transmit_Word(Emergency_Mes);
 a34:	8c e2       	ldi	r24, 0x2C	; 44
 a36:	91 e0       	ldi	r25, 0x01	; 1
 a38:	0e 94 b0 05 	call	0xb60	; 0xb60 <UART_Transmit_Word>
 a3c:	08 95       	ret
	}
	else if (T>40 && T<=50 && *bot1f==1)
 a3e:	9c 01       	movw	r18, r24
 a40:	29 52       	subi	r18, 0x29	; 41
 a42:	31 09       	sbc	r19, r1
 a44:	2a 30       	cpi	r18, 0x0A	; 10
 a46:	31 05       	cpc	r19, r1
 a48:	48 f4       	brcc	.+18     	; 0xa5c <UART_Transmit_State+0x32>
 a4a:	fb 01       	movw	r30, r22
 a4c:	20 81       	ld	r18, Z
 a4e:	21 30       	cpi	r18, 0x01	; 1
 a50:	29 f4       	brne	.+10     	; 0xa5c <UART_Transmit_State+0x32>
	{	
		//send the off signal
		uart_status x=UART_Transmit_Word(Off_Mes);
 a52:	8f ef       	ldi	r24, 0xFF	; 255
 a54:	90 e0       	ldi	r25, 0x00	; 0
 a56:	0e 94 b0 05 	call	0xb60	; 0xb60 <UART_Transmit_Word>
		*bot1f=0;
		//send the emergency signal
		uart_status x=UART_Transmit_Word(Emergency_Mes);
	}
	else if (T>40 && T<=50 && *bot1f==1)
	{	
 a5a:	08 95       	ret
		//send the off signal
		uart_status x=UART_Transmit_Word(Off_Mes);
	}
	else{
		/* Reset the flag	*/
		*bot1f=0;
 a5c:	fb 01       	movw	r30, r22
 a5e:	10 82       	st	Z, r1
		uart_status x=UART_Transmit_Word(T);
 a60:	0e 94 b0 05 	call	0xb60	; 0xb60 <UART_Transmit_Word>
 a64:	08 95       	ret

Disassembly of section .text.Initialize_TEMP_SENSOR:

00000c28 <Initialize_TEMP_SENSOR>:

#include "LM35_TMP_Sensor_Private.h"

void Initialize_TEMP_SENSOR(void)
{
	DIO_SetPinDirection(TEMP_SEN_PORT, TEMP_SEN_PIN, DIO_OUTPUT);
 c28:	41 e0       	ldi	r20, 0x01	; 1
 c2a:	60 e0       	ldi	r22, 0x00	; 0
 c2c:	80 e0       	ldi	r24, 0x00	; 0
 c2e:	0e 94 f2 00 	call	0x1e4	; 0x1e4 <DIO_SetPinDirection>
 c32:	08 95       	ret

Disassembly of section .text.Read_TEMP_SENSOR:

00000a9a <Read_TEMP_SENSOR>:
}

temp Read_TEMP_SENSOR(void){
	uint16_t temp_volt=ADC_Read(TEMP_SEN_PIN);
 a9a:	80 e0       	ldi	r24, 0x00	; 0
 a9c:	0e 94 a9 03 	call	0x752	; 0x752 <ADC_Read>
	temp temp_read = temp_volt*500.0/1024.0 ;
 aa0:	bc 01       	movw	r22, r24
 aa2:	80 e0       	ldi	r24, 0x00	; 0
 aa4:	90 e0       	ldi	r25, 0x00	; 0
 aa6:	0e 94 31 03 	call	0x662	; 0x662 <__floatunsisf>
 aaa:	20 e0       	ldi	r18, 0x00	; 0
 aac:	30 e0       	ldi	r19, 0x00	; 0
 aae:	4a ef       	ldi	r20, 0xFA	; 250
 ab0:	53 e4       	ldi	r21, 0x43	; 67
 ab2:	0e 94 35 06 	call	0xc6a	; 0xc6a <__mulsf3>
 ab6:	20 e0       	ldi	r18, 0x00	; 0
 ab8:	30 e0       	ldi	r19, 0x00	; 0
 aba:	40 e8       	ldi	r20, 0x80	; 128
 abc:	5a e3       	ldi	r21, 0x3A	; 58
 abe:	0e 94 35 06 	call	0xc6a	; 0xc6a <__mulsf3>
 ac2:	0e 94 e3 03 	call	0x7c6	; 0x7c6 <__fixunssfsi>
	return temp_read;
 ac6:	cb 01       	movw	r24, r22
 ac8:	08 95       	ret

Disassembly of section .text.DC_Initialize:

0000087c <DC_Initialize>:

#include "DC_Private.h"

void DC_Initialize(dc_motor motor)
{	
	switch(motor)
 87c:	88 23       	and	r24, r24
 87e:	19 f0       	breq	.+6      	; 0x886 <DC_Initialize+0xa>
 880:	81 30       	cpi	r24, 0x01	; 1
 882:	a1 f0       	breq	.+40     	; 0x8ac <DC_Initialize+0x30>
 884:	08 95       	ret
	{
		case DC_Motor1:
		DIO_SetPinDirection(DC_Enable_Port, DC_Enable1_Pin, DC_OUTPUT);
 886:	41 e0       	ldi	r20, 0x01	; 1
 888:	63 e0       	ldi	r22, 0x03	; 3
 88a:	81 e0       	ldi	r24, 0x01	; 1
 88c:	0e 94 f2 00 	call	0x1e4	; 0x1e4 <DIO_SetPinDirection>
		DIO_SetPinDirection(DC_Motor_Port, DC_Motor1_A1, DC_OUTPUT);
 890:	41 e0       	ldi	r20, 0x01	; 1
 892:	61 e0       	ldi	r22, 0x01	; 1
 894:	82 e0       	ldi	r24, 0x02	; 2
 896:	0e 94 f2 00 	call	0x1e4	; 0x1e4 <DIO_SetPinDirection>
		DIO_SetPinDirection(DC_Motor_Port, DC_Motor1_A2, DC_OUTPUT);
 89a:	41 e0       	ldi	r20, 0x01	; 1
 89c:	62 e0       	ldi	r22, 0x02	; 2
 89e:	82 e0       	ldi	r24, 0x02	; 2
 8a0:	0e 94 f2 00 	call	0x1e4	; 0x1e4 <DIO_SetPinDirection>
		TCNT0 = 0;			/* Set timer0 count zero */
 8a4:	12 be       	out	0x32, r1	; 50
		TCCR0 = (1<<WGM00)|(1<<WGM01)|(1<<COM01)|(1<<CS00)|(1<<CS01);/* Set Fast PWM with Fosc/64 Timer0 clock */
 8a6:	8b e6       	ldi	r24, 0x6B	; 107
 8a8:	83 bf       	out	0x33, r24	; 51
		break;
 8aa:	08 95       	ret
		case DC_Motor2:
		DIO_SetPinDirection(DC_Enable_Port, DC_Enable2_Pin, DC_OUTPUT);
 8ac:	41 e0       	ldi	r20, 0x01	; 1
 8ae:	62 e0       	ldi	r22, 0x02	; 2
 8b0:	81 e0       	ldi	r24, 0x01	; 1
 8b2:	0e 94 f2 00 	call	0x1e4	; 0x1e4 <DIO_SetPinDirection>
		DIO_SetPinDirection(DC_Motor_Port, DC_Motor2_A3, DC_OUTPUT);
 8b6:	41 e0       	ldi	r20, 0x01	; 1
 8b8:	62 e0       	ldi	r22, 0x02	; 2
 8ba:	82 e0       	ldi	r24, 0x02	; 2
 8bc:	0e 94 f2 00 	call	0x1e4	; 0x1e4 <DIO_SetPinDirection>
		DIO_SetPinDirection(DC_Motor_Port, DC_Motor2_A4, DC_OUTPUT);
 8c0:	41 e0       	ldi	r20, 0x01	; 1
 8c2:	62 e0       	ldi	r22, 0x02	; 2
 8c4:	82 e0       	ldi	r24, 0x02	; 2
 8c6:	0e 94 f2 00 	call	0x1e4	; 0x1e4 <DIO_SetPinDirection>
 8ca:	08 95       	ret

Disassembly of section .text.DC_Start:

00000542 <DC_Start>:
	}
	
}

void DC_Start(dc_motor motor, dc_motor_direction direction)
{	
 542:	cf 93       	push	r28
 544:	c6 2f       	mov	r28, r22
	switch(motor)
 546:	88 23       	and	r24, r24
 548:	19 f0       	breq	.+6      	; 0x550 <DC_Start+0xe>
 54a:	81 30       	cpi	r24, 0x01	; 1
 54c:	09 f1       	breq	.+66     	; 0x590 <DC_Start+0x4e>
 54e:	3f c0       	rjmp	.+126    	; 0x5ce <DC_Start+0x8c>
	{
		case DC_Motor1:
		DIO_SetPinValue(DC_Enable_Port, DC_Enable1_Pin, DC_HIGH);
 550:	41 e0       	ldi	r20, 0x01	; 1
 552:	63 e0       	ldi	r22, 0x03	; 3
 554:	81 e0       	ldi	r24, 0x01	; 1
 556:	0e 94 63 01 	call	0x2c6	; 0x2c6 <DIO_SetPinValue>
		switch(direction)
 55a:	cc 23       	and	r28, r28
 55c:	19 f0       	breq	.+6      	; 0x564 <DC_Start+0x22>
 55e:	c1 30       	cpi	r28, 0x01	; 1
 560:	61 f0       	breq	.+24     	; 0x57a <DC_Start+0x38>
 562:	35 c0       	rjmp	.+106    	; 0x5ce <DC_Start+0x8c>
		{
			case DC_CW:
			DIO_SetPinValue(DC_Motor_Port, DC_Motor1_A1, DC_HIGH);
 564:	41 e0       	ldi	r20, 0x01	; 1
 566:	61 e0       	ldi	r22, 0x01	; 1
 568:	82 e0       	ldi	r24, 0x02	; 2
 56a:	0e 94 63 01 	call	0x2c6	; 0x2c6 <DIO_SetPinValue>
			DIO_SetPinValue(DC_Motor_Port, DC_Motor1_A2, DC_LOW);
 56e:	40 e0       	ldi	r20, 0x00	; 0
 570:	62 e0       	ldi	r22, 0x02	; 2
 572:	82 e0       	ldi	r24, 0x02	; 2
 574:	0e 94 63 01 	call	0x2c6	; 0x2c6 <DIO_SetPinValue>
			break;
 578:	2a c0       	rjmp	.+84     	; 0x5ce <DC_Start+0x8c>
			case DC_CCW:
			DIO_SetPinValue(DC_Motor_Port, DC_Motor1_A1, DC_LOW);
 57a:	40 e0       	ldi	r20, 0x00	; 0
 57c:	61 e0       	ldi	r22, 0x01	; 1
 57e:	82 e0       	ldi	r24, 0x02	; 2
 580:	0e 94 63 01 	call	0x2c6	; 0x2c6 <DIO_SetPinValue>
			DIO_SetPinValue(DC_Motor_Port, DC_Motor1_A2, DC_HIGH);
 584:	41 e0       	ldi	r20, 0x01	; 1
 586:	62 e0       	ldi	r22, 0x02	; 2
 588:	82 e0       	ldi	r24, 0x02	; 2
 58a:	0e 94 63 01 	call	0x2c6	; 0x2c6 <DIO_SetPinValue>
			break;
 58e:	1f c0       	rjmp	.+62     	; 0x5ce <DC_Start+0x8c>
		}
		break;
		case DC_Motor2:
		DIO_SetPinValue(DC_Enable_Port, DC_Enable2_Pin, DC_HIGH);
 590:	41 e0       	ldi	r20, 0x01	; 1
 592:	62 e0       	ldi	r22, 0x02	; 2
 594:	81 e0       	ldi	r24, 0x01	; 1
 596:	0e 94 63 01 	call	0x2c6	; 0x2c6 <DIO_SetPinValue>
		switch(direction)
 59a:	cc 23       	and	r28, r28
 59c:	19 f0       	breq	.+6      	; 0x5a4 <DC_Start+0x62>
 59e:	c1 30       	cpi	r28, 0x01	; 1
 5a0:	61 f0       	breq	.+24     	; 0x5ba <DC_Start+0x78>
 5a2:	15 c0       	rjmp	.+42     	; 0x5ce <DC_Start+0x8c>
		{
			case DC_CW:
			DIO_SetPinValue(DC_Motor_Port, DC_Motor2_A3, DC_HIGH);
 5a4:	41 e0       	ldi	r20, 0x01	; 1
 5a6:	62 e0       	ldi	r22, 0x02	; 2
 5a8:	82 e0       	ldi	r24, 0x02	; 2
 5aa:	0e 94 63 01 	call	0x2c6	; 0x2c6 <DIO_SetPinValue>
			DIO_SetPinValue(DC_Motor_Port, DC_Motor2_A4, DC_LOW);
 5ae:	40 e0       	ldi	r20, 0x00	; 0
 5b0:	62 e0       	ldi	r22, 0x02	; 2
 5b2:	82 e0       	ldi	r24, 0x02	; 2
 5b4:	0e 94 63 01 	call	0x2c6	; 0x2c6 <DIO_SetPinValue>
			break;
 5b8:	0a c0       	rjmp	.+20     	; 0x5ce <DC_Start+0x8c>
			case DC_CCW:
			DIO_SetPinValue(DC_Motor_Port, DC_Motor2_A3, DC_LOW);
 5ba:	40 e0       	ldi	r20, 0x00	; 0
 5bc:	62 e0       	ldi	r22, 0x02	; 2
 5be:	82 e0       	ldi	r24, 0x02	; 2
 5c0:	0e 94 63 01 	call	0x2c6	; 0x2c6 <DIO_SetPinValue>
			DIO_SetPinValue(DC_Motor_Port, DC_Motor2_A4, DC_HIGH);
 5c4:	41 e0       	ldi	r20, 0x01	; 1
 5c6:	62 e0       	ldi	r22, 0x02	; 2
 5c8:	82 e0       	ldi	r24, 0x02	; 2
 5ca:	0e 94 63 01 	call	0x2c6	; 0x2c6 <DIO_SetPinValue>
			break;
		}
		break;
	}
}
 5ce:	cf 91       	pop	r28
 5d0:	08 95       	ret

Disassembly of section .text.DC_Stop:

000008cc <DC_Stop>:

void DC_Stop(dc_motor motor)
{
	switch(motor)
 8cc:	88 23       	and	r24, r24
 8ce:	19 f0       	breq	.+6      	; 0x8d6 <DC_Stop+0xa>
 8d0:	81 30       	cpi	r24, 0x01	; 1
 8d2:	91 f0       	breq	.+36     	; 0x8f8 <DC_Stop+0x2c>
 8d4:	08 95       	ret
	{
		case DC_Motor1:
		// Stop the pulse
		OCR0=0;
 8d6:	1c be       	out	0x3c, r1	; 60
		DIO_SetPinValue(DC_Enable_Port, DC_Enable1_Pin, DC_LOW);
 8d8:	40 e0       	ldi	r20, 0x00	; 0
 8da:	63 e0       	ldi	r22, 0x03	; 3
 8dc:	81 e0       	ldi	r24, 0x01	; 1
 8de:	0e 94 63 01 	call	0x2c6	; 0x2c6 <DIO_SetPinValue>
		DIO_SetPinValue(DC_Motor_Port, DC_Motor1_A1, DC_LOW);
 8e2:	40 e0       	ldi	r20, 0x00	; 0
 8e4:	61 e0       	ldi	r22, 0x01	; 1
 8e6:	82 e0       	ldi	r24, 0x02	; 2
 8e8:	0e 94 63 01 	call	0x2c6	; 0x2c6 <DIO_SetPinValue>
		DIO_SetPinValue(DC_Motor_Port, DC_Motor1_A2, DC_LOW);
 8ec:	40 e0       	ldi	r20, 0x00	; 0
 8ee:	62 e0       	ldi	r22, 0x02	; 2
 8f0:	82 e0       	ldi	r24, 0x02	; 2
 8f2:	0e 94 63 01 	call	0x2c6	; 0x2c6 <DIO_SetPinValue>
		break;
 8f6:	08 95       	ret
		case DC_Motor2:
		DIO_SetPinValue(DC_Enable_Port, DC_Enable2_Pin, DC_LOW);
 8f8:	40 e0       	ldi	r20, 0x00	; 0
 8fa:	62 e0       	ldi	r22, 0x02	; 2
 8fc:	81 e0       	ldi	r24, 0x01	; 1
 8fe:	0e 94 63 01 	call	0x2c6	; 0x2c6 <DIO_SetPinValue>
		DIO_SetPinValue(DC_Motor_Port, DC_Motor2_A3, DC_LOW);
 902:	40 e0       	ldi	r20, 0x00	; 0
 904:	62 e0       	ldi	r22, 0x02	; 2
 906:	82 e0       	ldi	r24, 0x02	; 2
 908:	0e 94 63 01 	call	0x2c6	; 0x2c6 <DIO_SetPinValue>
		DIO_SetPinValue(DC_Motor_Port, DC_Motor2_A4, DC_LOW);
 90c:	40 e0       	ldi	r20, 0x00	; 0
 90e:	62 e0       	ldi	r22, 0x02	; 2
 910:	82 e0       	ldi	r24, 0x02	; 2
 912:	0e 94 63 01 	call	0x2c6	; 0x2c6 <DIO_SetPinValue>
 916:	08 95       	ret

Disassembly of section .text.DC_Change_Speed:

00000af8 <DC_Change_Speed>:
		break;
	}
}

void DC_Change_Speed(dc_motor motor,uint16_t speed)
{	switch (motor){
 af8:	88 23       	and	r24, r24
 afa:	19 f0       	breq	.+6      	; 0xb02 <DC_Change_Speed+0xa>
 afc:	81 30       	cpi	r24, 0x01	; 1
 afe:	39 f0       	breq	.+14     	; 0xb0e <DC_Change_Speed+0x16>
 b00:	08 95       	ret
		case DC_Motor1:
			OCR0 = speed/4;
 b02:	76 95       	lsr	r23
 b04:	67 95       	ror	r22
 b06:	76 95       	lsr	r23
 b08:	67 95       	ror	r22
 b0a:	6c bf       	out	0x3c, r22	; 60
		break;
 b0c:	08 95       	ret
		case DC_Motor2:
			OCR1A = speed/4;
 b0e:	76 95       	lsr	r23
 b10:	67 95       	ror	r22
 b12:	76 95       	lsr	r23
 b14:	67 95       	ror	r22
 b16:	7b bd       	out	0x2b, r23	; 43
 b18:	6a bd       	out	0x2a, r22	; 42
 b1a:	08 95       	ret

Disassembly of section .text.main:

000005d2 <main>:
uint8_t Speed_Scale=250;



int main(void)
{	
 5d2:	0f 93       	push	r16
 5d4:	cf 93       	push	r28
 5d6:	df 93       	push	r29
	/*		Initializations		*/
	temp temperature=0;
	dc_motor DC_fan1=DC_Motor1;
	DC_Initialize(DC_fan1);
 5d8:	80 e0       	ldi	r24, 0x00	; 0
 5da:	0e 94 3e 04 	call	0x87c	; 0x87c <DC_Initialize>
	Initialize_E2PROM_State();
 5de:	0e 94 cb 05 	call	0xb96	; 0xb96 <Initialize_E2PROM_State>
	Initialize_TEMP_SENSOR();
 5e2:	0e 94 14 06 	call	0xc28	; 0xc28 <Initialize_TEMP_SENSOR>
	ADC_Initialize(5,1024);
 5e6:	60 e0       	ldi	r22, 0x00	; 0
 5e8:	85 e0       	ldi	r24, 0x05	; 5
 5ea:	0e 94 f2 05 	call	0xbe4	; 0xbe4 <ADC_Initialize>
	DIO_SetPinDirection(BOT1_PORT,BOT1_PIN,DIO_INPUT); //push button 
 5ee:	8b b3       	in	r24, 0x1b	; 27
 5f0:	40 e0       	ldi	r20, 0x00	; 0
 5f2:	60 e0       	ldi	r22, 0x00	; 0
 5f4:	0e 94 f2 00 	call	0x1e4	; 0x1e4 <DIO_SetPinDirection>
	
	uart_status UART_State= UART_Initialize_WithoutInterrupt(UART_9600,Synchronous, Disable , Bits_8, Bit_1);
 5f8:	00 e0       	ldi	r16, 0x00	; 0
 5fa:	23 e0       	ldi	r18, 0x03	; 3
 5fc:	40 e0       	ldi	r20, 0x00	; 0
 5fe:	61 e0       	ldi	r22, 0x01	; 1
 600:	80 e6       	ldi	r24, 0x60	; 96
 602:	90 e0       	ldi	r25, 0x00	; 0
 604:	0e 94 62 00 	call	0xc4	; 0xc4 <__data_load_end>
	if(UART_State==UART_NOK){
 608:	88 23       	and	r24, r24
 60a:	29 f1       	breq	.+74     	; 0x656 <main+0x84>
		return 0;
	}

	External_Interrupt0_Initalize(INT0_RISING);
 60c:	82 e0       	ldi	r24, 0x02	; 2
 60e:	0e 94 12 04 	call	0x824	; 0x824 <External_Interrupt0_Initalize>
	/*
	Timer_Init();
	*/
	
	// Read initial state from EEPROM
	uint8_t x= Read_E2PROM_State();
 612:	0e 94 0e 06 	call	0xc1c	; 0xc1c <Read_E2PROM_State>
	if (x==0)
 616:	81 11       	cpse	r24, r1
 618:	03 c0       	rjmp	.+6      	; 0x620 <main+0x4e>
	{
		DC_Start(DC_fan1,DC_CW);
 61a:	60 e0       	ldi	r22, 0x00	; 0
 61c:	0e 94 a1 02 	call	0x542	; 0x542 <DC_Start>
	#else
		//round up by default
		__ticks_dc = (uint32_t)(ceil(fabs(__tmp)));
	#endif

	__builtin_avr_delay_cycles(__ticks_dc);
 620:	8f e1       	ldi	r24, 0x1F	; 31
 622:	9e e4       	ldi	r25, 0x4E	; 78
 624:	01 97       	sbiw	r24, 0x01	; 1
 626:	f1 f7       	brne	.-4      	; 0x624 <main+0x52>
 628:	00 c0       	rjmp	.+0      	; 0x62a <main+0x58>
 62a:	00 00       	nop
	_delay_ms(10);

	/*	Main	Code	*/
    while(1)
    {	
		temperature=Read_TEMP_SENSOR();
 62c:	0e 94 4d 05 	call	0xa9a	; 0xa9a <Read_TEMP_SENSOR>
 630:	ec 01       	movw	r28, r24
		
		/* Send the message (Temperature)	*/
		UART_Transmit_State(temperature,&buttonPressed);
 632:	64 e6       	ldi	r22, 0x64	; 100
 634:	70 e0       	ldi	r23, 0x00	; 0
 636:	0e 94 15 05 	call	0xa2a	; 0xa2a <UART_Transmit_State>
		/*
		//Recieve the message (Speed)	
		UART_Receive_Speed(&Speed_Scale);
		*/
		V++;
 63a:	80 91 62 00 	lds	r24, 0x0062	; 0x800062 <V>
 63e:	8f 5f       	subi	r24, 0xFF	; 255
 640:	80 93 62 00 	sts	0x0062, r24	; 0x800062 <V>
		handle_event(temperature,DC_fan1,Speed_Scale,&currentState);
 644:	25 e6       	ldi	r18, 0x65	; 101
 646:	30 e0       	ldi	r19, 0x00	; 0
 648:	40 91 61 00 	lds	r20, 0x0061	; 0x800061 <Speed_Scale>
 64c:	60 e0       	ldi	r22, 0x00	; 0
 64e:	ce 01       	movw	r24, r28
 650:	0e 94 33 05 	call	0xa66	; 0xa66 <handle_event>
 654:	eb cf       	rjmp	.-42     	; 0x62c <main+0x5a>

    }
}
 656:	80 e0       	ldi	r24, 0x00	; 0
 658:	90 e0       	ldi	r25, 0x00	; 0
 65a:	df 91       	pop	r29
 65c:	cf 91       	pop	r28
 65e:	0f 91       	pop	r16
 660:	08 95       	ret

Disassembly of section .text.__vector_1:

000009e8 <__vector_1>:

/*	Interrupt Service Routine for INT0 (bot1)	 */
ISR(INT0_vect)
{
 9e8:	1f 92       	push	r1
 9ea:	0f 92       	push	r0
 9ec:	0f b6       	in	r0, 0x3f	; 63
 9ee:	0f 92       	push	r0
 9f0:	11 24       	eor	r1, r1
 9f2:	2f 93       	push	r18
 9f4:	8f 93       	push	r24
 9f6:	9f 93       	push	r25
	 y++;
 9f8:	80 91 63 00 	lds	r24, 0x0063	; 0x800063 <y>
 9fc:	8f 5f       	subi	r24, 0xFF	; 255
 9fe:	80 93 63 00 	sts	0x0063, r24	; 0x800063 <y>
	 buttonPressed = 1;		/* Set the flag */
 a02:	81 e0       	ldi	r24, 0x01	; 1
 a04:	80 93 64 00 	sts	0x0064, r24	; 0x800064 <buttonPressed>
 a08:	2f e7       	ldi	r18, 0x7F	; 127
 a0a:	88 e3       	ldi	r24, 0x38	; 56
 a0c:	91 e0       	ldi	r25, 0x01	; 1
 a0e:	21 50       	subi	r18, 0x01	; 1
 a10:	80 40       	sbci	r24, 0x00	; 0
 a12:	90 40       	sbci	r25, 0x00	; 0
 a14:	e1 f7       	brne	.-8      	; 0xa0e <__vector_1+0x26>
 a16:	00 c0       	rjmp	.+0      	; 0xa18 <__vector_1+0x30>
 a18:	00 00       	nop
	_delay_ms(50);  	/* Software debouncing control delay */
 a1a:	9f 91       	pop	r25
 a1c:	8f 91       	pop	r24
 a1e:	2f 91       	pop	r18
 a20:	0f 90       	pop	r0
 a22:	0f be       	out	0x3f, r0	; 63
 a24:	0f 90       	pop	r0
 a26:	1f 90       	pop	r1
 a28:	18 95       	reti

Disassembly of section .text.ADC_Initialize:

00000be4 <ADC_Initialize>:

#include "ADC_Private.h"

void ADC_Initialize(adc_vref voltage , adc_prescaler prescaler)
{
	ADMUX |= 0x40;
 be4:	87 b1       	in	r24, 0x07	; 7
 be6:	80 64       	ori	r24, 0x40	; 64
 be8:	87 b9       	out	0x07, r24	; 7
	ADCSRA |= 0xA7;
 bea:	86 b1       	in	r24, 0x06	; 6
 bec:	87 6a       	ori	r24, 0xA7	; 167
 bee:	86 b9       	out	0x06, r24	; 6
 bf0:	08 95       	ret

Disassembly of section .text.ADC_Read:

00000752 <ADC_Read>:
}

uint16_t ADC_Read(adc_channel channel)
{
 752:	e8 2f       	mov	r30, r24
	uint16_t val = 0;

	// Clear the ADC result register by reading it once
	uint16_t dummy = ADC_VAL;
 754:	84 b1       	in	r24, 0x04	; 4
 756:	95 b1       	in	r25, 0x05	; 5

	// Select the ADC channel
	switch (channel)
 758:	8e 2f       	mov	r24, r30
 75a:	90 e0       	ldi	r25, 0x00	; 0
 75c:	88 30       	cpi	r24, 0x08	; 8
 75e:	91 05       	cpc	r25, r1
 760:	50 f5       	brcc	.+84     	; 0x7b6 <ADC_Read+0x64>
 762:	fc 01       	movw	r30, r24
 764:	e6 5d       	subi	r30, 0xD6	; 214
 766:	ff 4f       	sbci	r31, 0xFF	; 255
 768:	0c 94 20 06 	jmp	0xc40	; 0xc40 <__tablejump2__>
	{
		case ADC_0:
		ADMUX = (ADMUX & 0xF8) | 0x00; // Clear the channel bits and set ADC0
 76c:	87 b1       	in	r24, 0x07	; 7
 76e:	88 7f       	andi	r24, 0xF8	; 248
 770:	87 b9       	out	0x07, r24	; 7
		break;
 772:	21 c0       	rjmp	.+66     	; 0x7b6 <ADC_Read+0x64>
		case ADC_1:
		ADMUX = (ADMUX & 0xF8) | 0x01; // Clear the channel bits and set ADC1
 774:	87 b1       	in	r24, 0x07	; 7
 776:	88 7f       	andi	r24, 0xF8	; 248
 778:	81 60       	ori	r24, 0x01	; 1
 77a:	87 b9       	out	0x07, r24	; 7
		break;
 77c:	1c c0       	rjmp	.+56     	; 0x7b6 <ADC_Read+0x64>
		case ADC_2:
		ADMUX = (ADMUX & 0xF8) | 0x02; // Clear the channel bits and set ADC2
 77e:	87 b1       	in	r24, 0x07	; 7
 780:	88 7f       	andi	r24, 0xF8	; 248
 782:	82 60       	ori	r24, 0x02	; 2
 784:	87 b9       	out	0x07, r24	; 7
		break;
 786:	17 c0       	rjmp	.+46     	; 0x7b6 <ADC_Read+0x64>
		case ADC_3:
		ADMUX = (ADMUX & 0xF8) | 0x03; // Clear the channel bits and set ADC3
 788:	87 b1       	in	r24, 0x07	; 7
 78a:	88 7f       	andi	r24, 0xF8	; 248
 78c:	83 60       	ori	r24, 0x03	; 3
 78e:	87 b9       	out	0x07, r24	; 7
		break;
 790:	12 c0       	rjmp	.+36     	; 0x7b6 <ADC_Read+0x64>
		case ADC_4:
		ADMUX = (ADMUX & 0xF8) | 0x04; // Clear the channel bits and set ADC4
 792:	87 b1       	in	r24, 0x07	; 7
 794:	88 7f       	andi	r24, 0xF8	; 248
 796:	84 60       	ori	r24, 0x04	; 4
 798:	87 b9       	out	0x07, r24	; 7
		break;
 79a:	0d c0       	rjmp	.+26     	; 0x7b6 <ADC_Read+0x64>
		case ADC_5:
		ADMUX = (ADMUX & 0xF8) | 0x05; // Clear the channel bits and set ADC5
 79c:	87 b1       	in	r24, 0x07	; 7
 79e:	88 7f       	andi	r24, 0xF8	; 248
 7a0:	85 60       	ori	r24, 0x05	; 5
 7a2:	87 b9       	out	0x07, r24	; 7
		break;
 7a4:	08 c0       	rjmp	.+16     	; 0x7b6 <ADC_Read+0x64>
		case ADC_6:
		ADMUX = (ADMUX & 0xF8) | 0x06; // Clear the channel bits and set ADC6
 7a6:	87 b1       	in	r24, 0x07	; 7
 7a8:	88 7f       	andi	r24, 0xF8	; 248
 7aa:	86 60       	ori	r24, 0x06	; 6
 7ac:	87 b9       	out	0x07, r24	; 7
		break;
 7ae:	03 c0       	rjmp	.+6      	; 0x7b6 <ADC_Read+0x64>
		case ADC_7:
		ADMUX = (ADMUX & 0xF8) | 0x07; // Clear the channel bits and set ADC7
 7b0:	87 b1       	in	r24, 0x07	; 7
 7b2:	87 60       	ori	r24, 0x07	; 7
 7b4:	87 b9       	out	0x07, r24	; 7
		break;
	}

	// Start ADC conversion
	ADCSRA |= (1 << ADSC);
 7b6:	86 b1       	in	r24, 0x06	; 6
 7b8:	80 64       	ori	r24, 0x40	; 64
 7ba:	86 b9       	out	0x06, r24	; 6

	// Wait for conversion to complete
	while (ADCSRA & (1 << ADSC));
 7bc:	36 99       	sbic	0x06, 6	; 6
 7be:	fe cf       	rjmp	.-4      	; 0x7bc <ADC_Read+0x6a>

	// Read the converted value
	val = ADC_VAL;
 7c0:	84 b1       	in	r24, 0x04	; 4
 7c2:	95 b1       	in	r25, 0x05	; 5

	return val;
}
 7c4:	08 95       	ret

Disassembly of section .text.DIO_SetPinDirection:

000001e4 <DIO_SetPinDirection>:
#include "DIO_Private.h"

/*------------------------PINS---------------------------*/
void DIO_SetPinDirection(port Port, pin Pin, state State)
{
	switch(State)
 1e4:	44 23       	and	r20, r20
 1e6:	19 f0       	breq	.+6      	; 0x1ee <DIO_SetPinDirection+0xa>
 1e8:	41 30       	cpi	r20, 0x01	; 1
 1ea:	c9 f1       	breq	.+114    	; 0x25e <DIO_SetPinDirection+0x7a>
 1ec:	08 95       	ret
	{
		case DIO_INPUT:
		switch (Port)
 1ee:	81 30       	cpi	r24, 0x01	; 1
 1f0:	91 f0       	breq	.+36     	; 0x216 <DIO_SetPinDirection+0x32>
 1f2:	28 f0       	brcs	.+10     	; 0x1fe <DIO_SetPinDirection+0x1a>
 1f4:	82 30       	cpi	r24, 0x02	; 2
 1f6:	d9 f0       	breq	.+54     	; 0x22e <DIO_SetPinDirection+0x4a>
 1f8:	83 30       	cpi	r24, 0x03	; 3
 1fa:	29 f1       	breq	.+74     	; 0x246 <DIO_SetPinDirection+0x62>
 1fc:	08 95       	ret
		{
			case DIO_PORTA:
			CLR_BIT(DDRA, Pin);
 1fe:	2a b3       	in	r18, 0x1a	; 26
 200:	81 e0       	ldi	r24, 0x01	; 1
 202:	90 e0       	ldi	r25, 0x00	; 0
 204:	02 c0       	rjmp	.+4      	; 0x20a <DIO_SetPinDirection+0x26>
 206:	88 0f       	add	r24, r24
 208:	99 1f       	adc	r25, r25
 20a:	6a 95       	dec	r22
 20c:	e2 f7       	brpl	.-8      	; 0x206 <DIO_SetPinDirection+0x22>
 20e:	80 95       	com	r24
 210:	82 23       	and	r24, r18
 212:	8a bb       	out	0x1a, r24	; 26
			break;
 214:	08 95       	ret
			case DIO_PORTB:
			CLR_BIT(DDRB, Pin);
 216:	27 b3       	in	r18, 0x17	; 23
 218:	81 e0       	ldi	r24, 0x01	; 1
 21a:	90 e0       	ldi	r25, 0x00	; 0
 21c:	02 c0       	rjmp	.+4      	; 0x222 <DIO_SetPinDirection+0x3e>
 21e:	88 0f       	add	r24, r24
 220:	99 1f       	adc	r25, r25
 222:	6a 95       	dec	r22
 224:	e2 f7       	brpl	.-8      	; 0x21e <DIO_SetPinDirection+0x3a>
 226:	80 95       	com	r24
 228:	82 23       	and	r24, r18
 22a:	87 bb       	out	0x17, r24	; 23
			break;
 22c:	08 95       	ret
			case DIO_PORTC:
			CLR_BIT(DDRC, Pin);
 22e:	24 b3       	in	r18, 0x14	; 20
 230:	81 e0       	ldi	r24, 0x01	; 1
 232:	90 e0       	ldi	r25, 0x00	; 0
 234:	02 c0       	rjmp	.+4      	; 0x23a <DIO_SetPinDirection+0x56>
 236:	88 0f       	add	r24, r24
 238:	99 1f       	adc	r25, r25
 23a:	6a 95       	dec	r22
 23c:	e2 f7       	brpl	.-8      	; 0x236 <DIO_SetPinDirection+0x52>
 23e:	80 95       	com	r24
 240:	82 23       	and	r24, r18
 242:	84 bb       	out	0x14, r24	; 20
			break;
 244:	08 95       	ret
			case DIO_PORTD:
			CLR_BIT(DDRD, Pin);
 246:	21 b3       	in	r18, 0x11	; 17
 248:	81 e0       	ldi	r24, 0x01	; 1
 24a:	90 e0       	ldi	r25, 0x00	; 0
 24c:	02 c0       	rjmp	.+4      	; 0x252 <DIO_SetPinDirection+0x6e>
 24e:	88 0f       	add	r24, r24
 250:	99 1f       	adc	r25, r25
 252:	6a 95       	dec	r22
 254:	e2 f7       	brpl	.-8      	; 0x24e <DIO_SetPinDirection+0x6a>
 256:	80 95       	com	r24
 258:	82 23       	and	r24, r18
 25a:	81 bb       	out	0x11, r24	; 17
			break;
 25c:	08 95       	ret
		}
		break;
		case DIO_OUTPUT:
		switch (Port)
 25e:	81 30       	cpi	r24, 0x01	; 1
 260:	89 f0       	breq	.+34     	; 0x284 <DIO_SetPinDirection+0xa0>
 262:	28 f0       	brcs	.+10     	; 0x26e <DIO_SetPinDirection+0x8a>
 264:	82 30       	cpi	r24, 0x02	; 2
 266:	c9 f0       	breq	.+50     	; 0x29a <DIO_SetPinDirection+0xb6>
 268:	83 30       	cpi	r24, 0x03	; 3
 26a:	11 f1       	breq	.+68     	; 0x2b0 <DIO_SetPinDirection+0xcc>
 26c:	08 95       	ret
		{
			case DIO_PORTA:
			SET_BIT(DDRA, Pin);
 26e:	2a b3       	in	r18, 0x1a	; 26
 270:	81 e0       	ldi	r24, 0x01	; 1
 272:	90 e0       	ldi	r25, 0x00	; 0
 274:	02 c0       	rjmp	.+4      	; 0x27a <DIO_SetPinDirection+0x96>
 276:	88 0f       	add	r24, r24
 278:	99 1f       	adc	r25, r25
 27a:	6a 95       	dec	r22
 27c:	e2 f7       	brpl	.-8      	; 0x276 <DIO_SetPinDirection+0x92>
 27e:	82 2b       	or	r24, r18
 280:	8a bb       	out	0x1a, r24	; 26
			break;
 282:	08 95       	ret
			case DIO_PORTB:
			SET_BIT(DDRB, Pin);
 284:	27 b3       	in	r18, 0x17	; 23
 286:	81 e0       	ldi	r24, 0x01	; 1
 288:	90 e0       	ldi	r25, 0x00	; 0
 28a:	02 c0       	rjmp	.+4      	; 0x290 <DIO_SetPinDirection+0xac>
 28c:	88 0f       	add	r24, r24
 28e:	99 1f       	adc	r25, r25
 290:	6a 95       	dec	r22
 292:	e2 f7       	brpl	.-8      	; 0x28c <DIO_SetPinDirection+0xa8>
 294:	82 2b       	or	r24, r18
 296:	87 bb       	out	0x17, r24	; 23
			break;
 298:	08 95       	ret
			case DIO_PORTC:
			SET_BIT(DDRC, Pin);
 29a:	24 b3       	in	r18, 0x14	; 20
 29c:	81 e0       	ldi	r24, 0x01	; 1
 29e:	90 e0       	ldi	r25, 0x00	; 0
 2a0:	02 c0       	rjmp	.+4      	; 0x2a6 <DIO_SetPinDirection+0xc2>
 2a2:	88 0f       	add	r24, r24
 2a4:	99 1f       	adc	r25, r25
 2a6:	6a 95       	dec	r22
 2a8:	e2 f7       	brpl	.-8      	; 0x2a2 <DIO_SetPinDirection+0xbe>
 2aa:	82 2b       	or	r24, r18
 2ac:	84 bb       	out	0x14, r24	; 20
			break;
 2ae:	08 95       	ret
			case DIO_PORTD:
			SET_BIT(DDRD, Pin);
 2b0:	21 b3       	in	r18, 0x11	; 17
 2b2:	81 e0       	ldi	r24, 0x01	; 1
 2b4:	90 e0       	ldi	r25, 0x00	; 0
 2b6:	02 c0       	rjmp	.+4      	; 0x2bc <DIO_SetPinDirection+0xd8>
 2b8:	88 0f       	add	r24, r24
 2ba:	99 1f       	adc	r25, r25
 2bc:	6a 95       	dec	r22
 2be:	e2 f7       	brpl	.-8      	; 0x2b8 <DIO_SetPinDirection+0xd4>
 2c0:	82 2b       	or	r24, r18
 2c2:	81 bb       	out	0x11, r24	; 17
 2c4:	08 95       	ret

Disassembly of section .text.DIO_SetPinValue:

000002c6 <DIO_SetPinValue>:
		break;
	}
}
void DIO_SetPinValue(port Port, pin Pin, status Status)
{
	switch(Status)
 2c6:	44 23       	and	r20, r20
 2c8:	19 f0       	breq	.+6      	; 0x2d0 <DIO_SetPinValue+0xa>
 2ca:	41 30       	cpi	r20, 0x01	; 1
 2cc:	c9 f1       	breq	.+114    	; 0x340 <DIO_SetPinValue+0x7a>
 2ce:	08 95       	ret
	{
		case DIO_LOW:
		switch (Port)
 2d0:	81 30       	cpi	r24, 0x01	; 1
 2d2:	91 f0       	breq	.+36     	; 0x2f8 <DIO_SetPinValue+0x32>
 2d4:	28 f0       	brcs	.+10     	; 0x2e0 <DIO_SetPinValue+0x1a>
 2d6:	82 30       	cpi	r24, 0x02	; 2
 2d8:	d9 f0       	breq	.+54     	; 0x310 <DIO_SetPinValue+0x4a>
 2da:	83 30       	cpi	r24, 0x03	; 3
 2dc:	29 f1       	breq	.+74     	; 0x328 <DIO_SetPinValue+0x62>
 2de:	08 95       	ret
		{
			case DIO_PORTA:
			CLR_BIT(PORTA, Pin);
 2e0:	2b b3       	in	r18, 0x1b	; 27
 2e2:	81 e0       	ldi	r24, 0x01	; 1
 2e4:	90 e0       	ldi	r25, 0x00	; 0
 2e6:	02 c0       	rjmp	.+4      	; 0x2ec <DIO_SetPinValue+0x26>
 2e8:	88 0f       	add	r24, r24
 2ea:	99 1f       	adc	r25, r25
 2ec:	6a 95       	dec	r22
 2ee:	e2 f7       	brpl	.-8      	; 0x2e8 <DIO_SetPinValue+0x22>
 2f0:	80 95       	com	r24
 2f2:	82 23       	and	r24, r18
 2f4:	8b bb       	out	0x1b, r24	; 27
			break;
 2f6:	08 95       	ret
			case DIO_PORTB:
			CLR_BIT(PORTB, Pin);
 2f8:	28 b3       	in	r18, 0x18	; 24
 2fa:	81 e0       	ldi	r24, 0x01	; 1
 2fc:	90 e0       	ldi	r25, 0x00	; 0
 2fe:	02 c0       	rjmp	.+4      	; 0x304 <DIO_SetPinValue+0x3e>
 300:	88 0f       	add	r24, r24
 302:	99 1f       	adc	r25, r25
 304:	6a 95       	dec	r22
 306:	e2 f7       	brpl	.-8      	; 0x300 <DIO_SetPinValue+0x3a>
 308:	80 95       	com	r24
 30a:	82 23       	and	r24, r18
 30c:	88 bb       	out	0x18, r24	; 24
			break;
 30e:	08 95       	ret
			case DIO_PORTC:
			CLR_BIT(PORTC, Pin);
 310:	25 b3       	in	r18, 0x15	; 21
 312:	81 e0       	ldi	r24, 0x01	; 1
 314:	90 e0       	ldi	r25, 0x00	; 0
 316:	02 c0       	rjmp	.+4      	; 0x31c <DIO_SetPinValue+0x56>
 318:	88 0f       	add	r24, r24
 31a:	99 1f       	adc	r25, r25
 31c:	6a 95       	dec	r22
 31e:	e2 f7       	brpl	.-8      	; 0x318 <DIO_SetPinValue+0x52>
 320:	80 95       	com	r24
 322:	82 23       	and	r24, r18
 324:	85 bb       	out	0x15, r24	; 21
			break;
 326:	08 95       	ret
			case DIO_PORTD:
			CLR_BIT(PORTD, Pin);
 328:	22 b3       	in	r18, 0x12	; 18
 32a:	81 e0       	ldi	r24, 0x01	; 1
 32c:	90 e0       	ldi	r25, 0x00	; 0
 32e:	02 c0       	rjmp	.+4      	; 0x334 <DIO_SetPinValue+0x6e>
 330:	88 0f       	add	r24, r24
 332:	99 1f       	adc	r25, r25
 334:	6a 95       	dec	r22
 336:	e2 f7       	brpl	.-8      	; 0x330 <DIO_SetPinValue+0x6a>
 338:	80 95       	com	r24
 33a:	82 23       	and	r24, r18
 33c:	82 bb       	out	0x12, r24	; 18
			break;
 33e:	08 95       	ret
		}
		break;
		case DIO_HIGH:
		switch (Port)
 340:	81 30       	cpi	r24, 0x01	; 1
 342:	89 f0       	breq	.+34     	; 0x366 <DIO_SetPinValue+0xa0>
 344:	28 f0       	brcs	.+10     	; 0x350 <DIO_SetPinValue+0x8a>
 346:	82 30       	cpi	r24, 0x02	; 2
 348:	c9 f0       	breq	.+50     	; 0x37c <DIO_SetPinValue+0xb6>
 34a:	83 30       	cpi	r24, 0x03	; 3
 34c:	11 f1       	breq	.+68     	; 0x392 <DIO_SetPinValue+0xcc>
 34e:	08 95       	ret
		{
			case DIO_PORTA:
			SET_BIT(PORTA, Pin);
 350:	2b b3       	in	r18, 0x1b	; 27
 352:	81 e0       	ldi	r24, 0x01	; 1
 354:	90 e0       	ldi	r25, 0x00	; 0
 356:	02 c0       	rjmp	.+4      	; 0x35c <DIO_SetPinValue+0x96>
 358:	88 0f       	add	r24, r24
 35a:	99 1f       	adc	r25, r25
 35c:	6a 95       	dec	r22
 35e:	e2 f7       	brpl	.-8      	; 0x358 <DIO_SetPinValue+0x92>
 360:	82 2b       	or	r24, r18
 362:	8b bb       	out	0x1b, r24	; 27
			break;
 364:	08 95       	ret
			case DIO_PORTB:
			SET_BIT(PORTB, Pin);
 366:	28 b3       	in	r18, 0x18	; 24
 368:	81 e0       	ldi	r24, 0x01	; 1
 36a:	90 e0       	ldi	r25, 0x00	; 0
 36c:	02 c0       	rjmp	.+4      	; 0x372 <DIO_SetPinValue+0xac>
 36e:	88 0f       	add	r24, r24
 370:	99 1f       	adc	r25, r25
 372:	6a 95       	dec	r22
 374:	e2 f7       	brpl	.-8      	; 0x36e <DIO_SetPinValue+0xa8>
 376:	82 2b       	or	r24, r18
 378:	88 bb       	out	0x18, r24	; 24
			break;
 37a:	08 95       	ret
			case DIO_PORTC:
			SET_BIT(PORTC, Pin);
 37c:	25 b3       	in	r18, 0x15	; 21
 37e:	81 e0       	ldi	r24, 0x01	; 1
 380:	90 e0       	ldi	r25, 0x00	; 0
 382:	02 c0       	rjmp	.+4      	; 0x388 <DIO_SetPinValue+0xc2>
 384:	88 0f       	add	r24, r24
 386:	99 1f       	adc	r25, r25
 388:	6a 95       	dec	r22
 38a:	e2 f7       	brpl	.-8      	; 0x384 <DIO_SetPinValue+0xbe>
 38c:	82 2b       	or	r24, r18
 38e:	85 bb       	out	0x15, r24	; 21
			break;
 390:	08 95       	ret
			case DIO_PORTD:
			SET_BIT(PORTD, Pin);
 392:	22 b3       	in	r18, 0x12	; 18
 394:	81 e0       	ldi	r24, 0x01	; 1
 396:	90 e0       	ldi	r25, 0x00	; 0
 398:	02 c0       	rjmp	.+4      	; 0x39e <DIO_SetPinValue+0xd8>
 39a:	88 0f       	add	r24, r24
 39c:	99 1f       	adc	r25, r25
 39e:	6a 95       	dec	r22
 3a0:	e2 f7       	brpl	.-8      	; 0x39a <DIO_SetPinValue+0xd4>
 3a2:	82 2b       	or	r24, r18
 3a4:	82 bb       	out	0x12, r24	; 18
 3a6:	08 95       	ret

Disassembly of section .text.External_Interrupt0_Initalize:

00000824 <External_Interrupt0_Initalize>:
#include "Interrupt_Private.h"

void External_Interrupt0_Initalize(int0_sense sense)
{
	// Define interrupt pin INT0 as input 
	CLR_BIT(DDRD,2);	
 824:	91 b3       	in	r25, 0x11	; 17
 826:	9b 7f       	andi	r25, 0xFB	; 251
 828:	91 bb       	out	0x11, r25	; 17
	// Disable global interrupt while initialization 
	cli();//Clear interrupt, CLR_BIT(SREG,7);
 82a:	f8 94       	cli
	// Choose sensing method
	switch(sense)
 82c:	81 30       	cpi	r24, 0x01	; 1
 82e:	69 f0       	breq	.+26     	; 0x84a <External_Interrupt0_Initalize+0x26>
 830:	28 f0       	brcs	.+10     	; 0x83c <External_Interrupt0_Initalize+0x18>
 832:	82 30       	cpi	r24, 0x02	; 2
 834:	c1 f0       	breq	.+48     	; 0x866 <__stack+0x7>
 836:	83 30       	cpi	r24, 0x03	; 3
 838:	79 f0       	breq	.+30     	; 0x858 <External_Interrupt0_Initalize+0x34>
 83a:	1b c0       	rjmp	.+54     	; 0x872 <__stack+0x13>
	{
		case INT0_LOW:
		CLR_BIT(MCUCR, ISC01);CLR_BIT(MCUCR, ISC00);// 0 0
 83c:	85 b7       	in	r24, 0x35	; 53
 83e:	8d 7f       	andi	r24, 0xFD	; 253
 840:	85 bf       	out	0x35, r24	; 53
 842:	85 b7       	in	r24, 0x35	; 53
 844:	8e 7f       	andi	r24, 0xFE	; 254
 846:	85 bf       	out	0x35, r24	; 53
		break;
 848:	14 c0       	rjmp	.+40     	; 0x872 <__stack+0x13>
		case INT0_HIGH:
		CLR_BIT(MCUCR, ISC01);SET_BIT(MCUCR, ISC00);// 0 1
 84a:	85 b7       	in	r24, 0x35	; 53
 84c:	8d 7f       	andi	r24, 0xFD	; 253
 84e:	85 bf       	out	0x35, r24	; 53
 850:	85 b7       	in	r24, 0x35	; 53
 852:	81 60       	ori	r24, 0x01	; 1
 854:	85 bf       	out	0x35, r24	; 53
		break;
 856:	0d c0       	rjmp	.+26     	; 0x872 <__stack+0x13>
		case INT0_FALLING:
		SET_BIT(MCUCR, ISC01);CLR_BIT(MCUCR, ISC00);// 1 0
 858:	85 b7       	in	r24, 0x35	; 53
 85a:	82 60       	ori	r24, 0x02	; 2
 85c:	85 bf       	out	0x35, r24	; 53
 85e:	85 b7       	in	r24, 0x35	; 53
 860:	8e 7f       	andi	r24, 0xFE	; 254
 862:	85 bf       	out	0x35, r24	; 53
		break;
 864:	06 c0       	rjmp	.+12     	; 0x872 <__stack+0x13>
		case INT0_RISING:
		SET_BIT(MCUCR, ISC01);SET_BIT(MCUCR, ISC00);// 1 1
 866:	85 b7       	in	r24, 0x35	; 53
 868:	82 60       	ori	r24, 0x02	; 2
 86a:	85 bf       	out	0x35, r24	; 53
 86c:	85 b7       	in	r24, 0x35	; 53
 86e:	81 60       	ori	r24, 0x01	; 1
 870:	85 bf       	out	0x35, r24	; 53
		break;
		
	}
	// Enable peripheral interrupt 
	SET_BIT(GICR, INT0);
 872:	8b b7       	in	r24, 0x3b	; 59
 874:	80 64       	ori	r24, 0x40	; 64
 876:	8b bf       	out	0x3b, r24	; 59
	// Enable global interrupt after initialization 
	sei();//Set interrupt, SET_BIT(SREG,7);
 878:	78 94       	sei
 87a:	08 95       	ret

Disassembly of section .text.UART_Initialize_WithoutInterrupt:

000000c4 <UART_Initialize_WithoutInterrupt>:
uart_status UART_Receive_Character(uint8_t* data)
{
	while (((UCSRA>>RXC)&0x01) != 1);//Wait until flag of receiving received
	*data = UDR;
	return UART_OK;
}
  c4:	0f 93       	push	r16
  c6:	31 b3       	in	r19, 0x11	; 17
  c8:	32 60       	ori	r19, 0x02	; 2
  ca:	31 bb       	out	0x11, r19	; 17
  cc:	31 b3       	in	r19, 0x11	; 17
  ce:	3e 7f       	andi	r19, 0xFE	; 254
  d0:	31 bb       	out	0x11, r19	; 17
  d2:	3a b1       	in	r19, 0x0a	; 10
  d4:	38 61       	ori	r19, 0x18	; 24
  d6:	3a b9       	out	0x0a, r19	; 10
  d8:	66 23       	and	r22, r22
  da:	19 f0       	breq	.+6      	; 0xe2 <UART_Initialize_WithoutInterrupt+0x1e>
  dc:	61 30       	cpi	r22, 0x01	; 1
  de:	29 f0       	breq	.+10     	; 0xea <UART_Initialize_WithoutInterrupt+0x26>
  e0:	07 c0       	rjmp	.+14     	; 0xf0 <UART_Initialize_WithoutInterrupt+0x2c>
  e2:	30 b5       	in	r19, 0x20	; 32
  e4:	3f 77       	andi	r19, 0x7F	; 127
  e6:	30 bd       	out	0x20, r19	; 32
  e8:	03 c0       	rjmp	.+6      	; 0xf0 <UART_Initialize_WithoutInterrupt+0x2c>
  ea:	30 b5       	in	r19, 0x20	; 32
  ec:	30 68       	ori	r19, 0x80	; 128
  ee:	30 bd       	out	0x20, r19	; 32
  f0:	22 30       	cpi	r18, 0x02	; 2
  f2:	f9 f0       	breq	.+62     	; 0x132 <UART_Initialize_WithoutInterrupt+0x6e>
  f4:	28 f4       	brcc	.+10     	; 0x100 <UART_Initialize_WithoutInterrupt+0x3c>
  f6:	22 23       	and	r18, r18
  f8:	41 f0       	breq	.+16     	; 0x10a <UART_Initialize_WithoutInterrupt+0x46>
  fa:	21 30       	cpi	r18, 0x01	; 1
  fc:	81 f0       	breq	.+32     	; 0x11e <UART_Initialize_WithoutInterrupt+0x5a>
  fe:	36 c0       	rjmp	.+108    	; 0x16c <UART_Initialize_WithoutInterrupt+0xa8>
 100:	23 30       	cpi	r18, 0x03	; 3
 102:	09 f1       	breq	.+66     	; 0x146 <UART_Initialize_WithoutInterrupt+0x82>
 104:	24 30       	cpi	r18, 0x04	; 4
 106:	49 f1       	breq	.+82     	; 0x15a <UART_Initialize_WithoutInterrupt+0x96>
 108:	31 c0       	rjmp	.+98     	; 0x16c <UART_Initialize_WithoutInterrupt+0xa8>
 10a:	2a b1       	in	r18, 0x0a	; 10
 10c:	2b 7f       	andi	r18, 0xFB	; 251
 10e:	2a b9       	out	0x0a, r18	; 10
 110:	20 b5       	in	r18, 0x20	; 32
 112:	2b 7f       	andi	r18, 0xFB	; 251
 114:	20 bd       	out	0x20, r18	; 32
 116:	20 b5       	in	r18, 0x20	; 32
 118:	2d 7f       	andi	r18, 0xFD	; 253
 11a:	20 bd       	out	0x20, r18	; 32
 11c:	27 c0       	rjmp	.+78     	; 0x16c <UART_Initialize_WithoutInterrupt+0xa8>
 11e:	2a b1       	in	r18, 0x0a	; 10
 120:	2b 7f       	andi	r18, 0xFB	; 251
 122:	2a b9       	out	0x0a, r18	; 10
 124:	20 b5       	in	r18, 0x20	; 32
 126:	2b 7f       	andi	r18, 0xFB	; 251
 128:	20 bd       	out	0x20, r18	; 32
 12a:	20 b5       	in	r18, 0x20	; 32
 12c:	22 60       	ori	r18, 0x02	; 2
 12e:	20 bd       	out	0x20, r18	; 32
 130:	1d c0       	rjmp	.+58     	; 0x16c <UART_Initialize_WithoutInterrupt+0xa8>
 132:	2a b1       	in	r18, 0x0a	; 10
 134:	2b 7f       	andi	r18, 0xFB	; 251
 136:	2a b9       	out	0x0a, r18	; 10
 138:	20 b5       	in	r18, 0x20	; 32
 13a:	24 60       	ori	r18, 0x04	; 4
 13c:	20 bd       	out	0x20, r18	; 32
 13e:	20 b5       	in	r18, 0x20	; 32
 140:	2d 7f       	andi	r18, 0xFD	; 253
 142:	20 bd       	out	0x20, r18	; 32
 144:	13 c0       	rjmp	.+38     	; 0x16c <UART_Initialize_WithoutInterrupt+0xa8>
 146:	2a b1       	in	r18, 0x0a	; 10
 148:	2b 7f       	andi	r18, 0xFB	; 251
 14a:	2a b9       	out	0x0a, r18	; 10
 14c:	20 b5       	in	r18, 0x20	; 32
 14e:	24 60       	ori	r18, 0x04	; 4
 150:	20 bd       	out	0x20, r18	; 32
 152:	20 b5       	in	r18, 0x20	; 32
 154:	22 60       	ori	r18, 0x02	; 2
 156:	20 bd       	out	0x20, r18	; 32
 158:	09 c0       	rjmp	.+18     	; 0x16c <UART_Initialize_WithoutInterrupt+0xa8>
 15a:	2a b1       	in	r18, 0x0a	; 10
 15c:	24 60       	ori	r18, 0x04	; 4
 15e:	2a b9       	out	0x0a, r18	; 10
 160:	20 b5       	in	r18, 0x20	; 32
 162:	24 60       	ori	r18, 0x04	; 4
 164:	20 bd       	out	0x20, r18	; 32
 166:	20 b5       	in	r18, 0x20	; 32
 168:	22 60       	ori	r18, 0x02	; 2
 16a:	20 bd       	out	0x20, r18	; 32
 16c:	41 30       	cpi	r20, 0x01	; 1
 16e:	59 f0       	breq	.+22     	; 0x186 <UART_Initialize_WithoutInterrupt+0xc2>
 170:	18 f0       	brcs	.+6      	; 0x178 <UART_Initialize_WithoutInterrupt+0xb4>
 172:	42 30       	cpi	r20, 0x02	; 2
 174:	79 f0       	breq	.+30     	; 0x194 <UART_Initialize_WithoutInterrupt+0xd0>
 176:	14 c0       	rjmp	.+40     	; 0x1a0 <UART_Initialize_WithoutInterrupt+0xdc>
 178:	20 b5       	in	r18, 0x20	; 32
 17a:	2f 7d       	andi	r18, 0xDF	; 223
 17c:	20 bd       	out	0x20, r18	; 32
 17e:	20 b5       	in	r18, 0x20	; 32
 180:	2f 7e       	andi	r18, 0xEF	; 239
 182:	20 bd       	out	0x20, r18	; 32
 184:	0d c0       	rjmp	.+26     	; 0x1a0 <UART_Initialize_WithoutInterrupt+0xdc>
 186:	20 b5       	in	r18, 0x20	; 32
 188:	20 62       	ori	r18, 0x20	; 32
 18a:	20 bd       	out	0x20, r18	; 32
 18c:	20 b5       	in	r18, 0x20	; 32
 18e:	2f 7e       	andi	r18, 0xEF	; 239
 190:	20 bd       	out	0x20, r18	; 32
 192:	06 c0       	rjmp	.+12     	; 0x1a0 <UART_Initialize_WithoutInterrupt+0xdc>
 194:	20 b5       	in	r18, 0x20	; 32
 196:	20 62       	ori	r18, 0x20	; 32
 198:	20 bd       	out	0x20, r18	; 32
 19a:	20 b5       	in	r18, 0x20	; 32
 19c:	20 61       	ori	r18, 0x10	; 16
 19e:	20 bd       	out	0x20, r18	; 32
 1a0:	00 23       	and	r16, r16
 1a2:	19 f0       	breq	.+6      	; 0x1aa <UART_Initialize_WithoutInterrupt+0xe6>
 1a4:	01 30       	cpi	r16, 0x01	; 1
 1a6:	29 f0       	breq	.+10     	; 0x1b2 <UART_Initialize_WithoutInterrupt+0xee>
 1a8:	07 c0       	rjmp	.+14     	; 0x1b8 <UART_Initialize_WithoutInterrupt+0xf4>
 1aa:	20 b5       	in	r18, 0x20	; 32
 1ac:	27 7f       	andi	r18, 0xF7	; 247
 1ae:	20 bd       	out	0x20, r18	; 32
 1b0:	03 c0       	rjmp	.+6      	; 0x1b8 <UART_Initialize_WithoutInterrupt+0xf4>
 1b2:	20 b5       	in	r18, 0x20	; 32
 1b4:	28 60       	ori	r18, 0x08	; 8
 1b6:	20 bd       	out	0x20, r18	; 32
 1b8:	9c 01       	movw	r18, r24
 1ba:	22 95       	swap	r18
 1bc:	32 95       	swap	r19
 1be:	30 7f       	andi	r19, 0xF0	; 240
 1c0:	32 27       	eor	r19, r18
 1c2:	20 7f       	andi	r18, 0xF0	; 240
 1c4:	32 27       	eor	r19, r18
 1c6:	40 e0       	ldi	r20, 0x00	; 0
 1c8:	50 e0       	ldi	r21, 0x00	; 0
 1ca:	60 e0       	ldi	r22, 0x00	; 0
 1cc:	71 e7       	ldi	r23, 0x71	; 113
 1ce:	82 e0       	ldi	r24, 0x02	; 2
 1d0:	90 e0       	ldi	r25, 0x00	; 0
 1d2:	0e 94 65 05 	call	0xaca	; 0xaca <__divmodsi4>
 1d6:	21 50       	subi	r18, 0x01	; 1
 1d8:	31 09       	sbc	r19, r1
 1da:	29 b9       	out	0x09, r18	; 9
 1dc:	30 bd       	out	0x20, r19	; 32
 1de:	81 e0       	ldi	r24, 0x01	; 1
 1e0:	0f 91       	pop	r16
 1e2:	08 95       	ret

Disassembly of section .text.UART_Transmit_Character:

00000c4c <UART_Transmit_Character>:
	return UART_OK;

}
uart_status UART_Transmit_Character(uint8_t data)
{
	UDR = data;
 c4c:	8c b9       	out	0x0c, r24	; 12
	while (((UCSRA>>TXC)&0x01) != 1);//Wait until flag of transmitting received
 c4e:	5e 9b       	sbis	0x0b, 6	; 11
 c50:	fe cf       	rjmp	.-4      	; 0xc4e <UART_Transmit_Character+0x2>
	return UART_OK;
}
 c52:	81 e0       	ldi	r24, 0x01	; 1
 c54:	08 95       	ret

Disassembly of section .text.UART_Transmit_Word:

00000b60 <UART_Transmit_Word>:
	while (((UCSRA>>RXC)&0x01) != 1);//Wait until flag of receiving received
	*data = UDR;
	return UART_OK;
}

uart_status UART_Transmit_Word(uint16_t data){
 b60:	cf 93       	push	r28
 b62:	df 93       	push	r29
 b64:	d8 2f       	mov	r29, r24
	uint8_t high_byte = (data >> 8) & 0xFF;
	uint8_t low_byte = data & 0xFF;
	uart_status s=UART_Transmit_Character(high_byte);
 b66:	89 2f       	mov	r24, r25
 b68:	0e 94 26 06 	call	0xc4c	; 0xc4c <UART_Transmit_Character>
 b6c:	c8 2f       	mov	r28, r24
	s|= UART_Transmit_Character(low_byte);
 b6e:	8d 2f       	mov	r24, r29
 b70:	0e 94 26 06 	call	0xc4c	; 0xc4c <UART_Transmit_Character>
	return s;

}
 b74:	8c 2b       	or	r24, r28
 b76:	df 91       	pop	r29
 b78:	cf 91       	pop	r28
 b7a:	08 95       	ret

Disassembly of section .text:

00000c56 <__cmpsf2>:
 c56:	0e 94 8c 04 	call	0x918	; 0x918 <__fp_cmp>
 c5a:	08 f4       	brcc	.+2      	; 0xc5e <__cmpsf2+0x8>
 c5c:	81 e0       	ldi	r24, 0x01	; 1
 c5e:	08 95       	ret

Disassembly of section .text:

000007c6 <__fixunssfsi>:
 7c6:	0e 94 b8 04 	call	0x970	; 0x970 <__fp_splitA>
 7ca:	88 f0       	brcs	.+34     	; 0x7ee <__fixunssfsi+0x28>
 7cc:	9f 57       	subi	r25, 0x7F	; 127
 7ce:	98 f0       	brcs	.+38     	; 0x7f6 <__fixunssfsi+0x30>
 7d0:	b9 2f       	mov	r27, r25
 7d2:	99 27       	eor	r25, r25
 7d4:	b7 51       	subi	r27, 0x17	; 23
 7d6:	b0 f0       	brcs	.+44     	; 0x804 <__DATA_REGION_LENGTH__+0x4>
 7d8:	e1 f0       	breq	.+56     	; 0x812 <__DATA_REGION_LENGTH__+0x12>
 7da:	66 0f       	add	r22, r22
 7dc:	77 1f       	adc	r23, r23
 7de:	88 1f       	adc	r24, r24
 7e0:	99 1f       	adc	r25, r25
 7e2:	1a f0       	brmi	.+6      	; 0x7ea <__fixunssfsi+0x24>
 7e4:	ba 95       	dec	r27
 7e6:	c9 f7       	brne	.-14     	; 0x7da <__fixunssfsi+0x14>
 7e8:	14 c0       	rjmp	.+40     	; 0x812 <__DATA_REGION_LENGTH__+0x12>
 7ea:	b1 30       	cpi	r27, 0x01	; 1
 7ec:	91 f0       	breq	.+36     	; 0x812 <__DATA_REGION_LENGTH__+0x12>
 7ee:	0e 94 f9 05 	call	0xbf2	; 0xbf2 <__fp_zero>
 7f2:	b1 e0       	ldi	r27, 0x01	; 1
 7f4:	08 95       	ret
 7f6:	0c 94 f9 05 	jmp	0xbf2	; 0xbf2 <__fp_zero>
 7fa:	67 2f       	mov	r22, r23
 7fc:	78 2f       	mov	r23, r24
 7fe:	88 27       	eor	r24, r24
 800:	b8 5f       	subi	r27, 0xF8	; 248
 802:	39 f0       	breq	.+14     	; 0x812 <__DATA_REGION_LENGTH__+0x12>
 804:	b9 3f       	cpi	r27, 0xF9	; 249
 806:	cc f3       	brlt	.-14     	; 0x7fa <__fixunssfsi+0x34>
 808:	86 95       	lsr	r24
 80a:	77 95       	ror	r23
 80c:	67 95       	ror	r22
 80e:	b3 95       	inc	r27
 810:	d9 f7       	brne	.-10     	; 0x808 <__DATA_REGION_LENGTH__+0x8>
 812:	3e f4       	brtc	.+14     	; 0x822 <__DATA_REGION_LENGTH__+0x22>
 814:	90 95       	com	r25
 816:	80 95       	com	r24
 818:	70 95       	com	r23
 81a:	61 95       	neg	r22
 81c:	7f 4f       	sbci	r23, 0xFF	; 255
 81e:	8f 4f       	sbci	r24, 0xFF	; 255
 820:	9f 4f       	sbci	r25, 0xFF	; 255
 822:	08 95       	ret

Disassembly of section .text:

00000662 <__floatunsisf>:
 662:	e8 94       	clt
 664:	09 c0       	rjmp	.+18     	; 0x678 <__floatsisf+0x12>

00000666 <__floatsisf>:
 666:	97 fb       	bst	r25, 7
 668:	3e f4       	brtc	.+14     	; 0x678 <__floatsisf+0x12>
 66a:	90 95       	com	r25
 66c:	80 95       	com	r24
 66e:	70 95       	com	r23
 670:	61 95       	neg	r22
 672:	7f 4f       	sbci	r23, 0xFF	; 255
 674:	8f 4f       	sbci	r24, 0xFF	; 255
 676:	9f 4f       	sbci	r25, 0xFF	; 255
 678:	99 23       	and	r25, r25
 67a:	a9 f0       	breq	.+42     	; 0x6a6 <__floatsisf+0x40>
 67c:	f9 2f       	mov	r31, r25
 67e:	96 e9       	ldi	r25, 0x96	; 150
 680:	bb 27       	eor	r27, r27
 682:	93 95       	inc	r25
 684:	f6 95       	lsr	r31
 686:	87 95       	ror	r24
 688:	77 95       	ror	r23
 68a:	67 95       	ror	r22
 68c:	b7 95       	ror	r27
 68e:	f1 11       	cpse	r31, r1
 690:	f8 cf       	rjmp	.-16     	; 0x682 <__floatsisf+0x1c>
 692:	fa f4       	brpl	.+62     	; 0x6d2 <__floatsisf+0x6c>
 694:	bb 0f       	add	r27, r27
 696:	11 f4       	brne	.+4      	; 0x69c <__floatsisf+0x36>
 698:	60 ff       	sbrs	r22, 0
 69a:	1b c0       	rjmp	.+54     	; 0x6d2 <__floatsisf+0x6c>
 69c:	6f 5f       	subi	r22, 0xFF	; 255
 69e:	7f 4f       	sbci	r23, 0xFF	; 255
 6a0:	8f 4f       	sbci	r24, 0xFF	; 255
 6a2:	9f 4f       	sbci	r25, 0xFF	; 255
 6a4:	16 c0       	rjmp	.+44     	; 0x6d2 <__floatsisf+0x6c>
 6a6:	88 23       	and	r24, r24
 6a8:	11 f0       	breq	.+4      	; 0x6ae <__floatsisf+0x48>
 6aa:	96 e9       	ldi	r25, 0x96	; 150
 6ac:	11 c0       	rjmp	.+34     	; 0x6d0 <__floatsisf+0x6a>
 6ae:	77 23       	and	r23, r23
 6b0:	21 f0       	breq	.+8      	; 0x6ba <__floatsisf+0x54>
 6b2:	9e e8       	ldi	r25, 0x8E	; 142
 6b4:	87 2f       	mov	r24, r23
 6b6:	76 2f       	mov	r23, r22
 6b8:	05 c0       	rjmp	.+10     	; 0x6c4 <__floatsisf+0x5e>
 6ba:	66 23       	and	r22, r22
 6bc:	71 f0       	breq	.+28     	; 0x6da <__floatsisf+0x74>
 6be:	96 e8       	ldi	r25, 0x86	; 134
 6c0:	86 2f       	mov	r24, r22
 6c2:	70 e0       	ldi	r23, 0x00	; 0
 6c4:	60 e0       	ldi	r22, 0x00	; 0
 6c6:	2a f0       	brmi	.+10     	; 0x6d2 <__floatsisf+0x6c>
 6c8:	9a 95       	dec	r25
 6ca:	66 0f       	add	r22, r22
 6cc:	77 1f       	adc	r23, r23
 6ce:	88 1f       	adc	r24, r24
 6d0:	da f7       	brpl	.-10     	; 0x6c8 <__floatsisf+0x62>
 6d2:	88 0f       	add	r24, r24
 6d4:	96 95       	lsr	r25
 6d6:	87 95       	ror	r24
 6d8:	97 f9       	bld	r25, 7
 6da:	08 95       	ret

Disassembly of section .text:

00000918 <__fp_cmp>:
 918:	99 0f       	add	r25, r25
 91a:	00 08       	sbc	r0, r0
 91c:	55 0f       	add	r21, r21
 91e:	aa 0b       	sbc	r26, r26
 920:	e0 e8       	ldi	r30, 0x80	; 128
 922:	fe ef       	ldi	r31, 0xFE	; 254
 924:	16 16       	cp	r1, r22
 926:	17 06       	cpc	r1, r23
 928:	e8 07       	cpc	r30, r24
 92a:	f9 07       	cpc	r31, r25
 92c:	c0 f0       	brcs	.+48     	; 0x95e <__fp_cmp+0x46>
 92e:	12 16       	cp	r1, r18
 930:	13 06       	cpc	r1, r19
 932:	e4 07       	cpc	r30, r20
 934:	f5 07       	cpc	r31, r21
 936:	98 f0       	brcs	.+38     	; 0x95e <__fp_cmp+0x46>
 938:	62 1b       	sub	r22, r18
 93a:	73 0b       	sbc	r23, r19
 93c:	84 0b       	sbc	r24, r20
 93e:	95 0b       	sbc	r25, r21
 940:	39 f4       	brne	.+14     	; 0x950 <__fp_cmp+0x38>
 942:	0a 26       	eor	r0, r26
 944:	61 f0       	breq	.+24     	; 0x95e <__fp_cmp+0x46>
 946:	23 2b       	or	r18, r19
 948:	24 2b       	or	r18, r20
 94a:	25 2b       	or	r18, r21
 94c:	21 f4       	brne	.+8      	; 0x956 <__fp_cmp+0x3e>
 94e:	08 95       	ret
 950:	0a 26       	eor	r0, r26
 952:	09 f4       	brne	.+2      	; 0x956 <__fp_cmp+0x3e>
 954:	a1 40       	sbci	r26, 0x01	; 1
 956:	a6 95       	lsr	r26
 958:	8f ef       	ldi	r24, 0xFF	; 255
 95a:	81 1d       	adc	r24, r1
 95c:	81 1d       	adc	r24, r1
 95e:	08 95       	ret

Disassembly of section .text:

00000960 <__fp_split3>:
 960:	57 fd       	sbrc	r21, 7
 962:	90 58       	subi	r25, 0x80	; 128
 964:	44 0f       	add	r20, r20
 966:	55 1f       	adc	r21, r21
 968:	59 f0       	breq	.+22     	; 0x980 <__fp_splitA+0x10>
 96a:	5f 3f       	cpi	r21, 0xFF	; 255
 96c:	71 f0       	breq	.+28     	; 0x98a <__fp_splitA+0x1a>
 96e:	47 95       	ror	r20

00000970 <__fp_splitA>:
 970:	88 0f       	add	r24, r24
 972:	97 fb       	bst	r25, 7
 974:	99 1f       	adc	r25, r25
 976:	61 f0       	breq	.+24     	; 0x990 <__fp_splitA+0x20>
 978:	9f 3f       	cpi	r25, 0xFF	; 255
 97a:	79 f0       	breq	.+30     	; 0x99a <__fp_splitA+0x2a>
 97c:	87 95       	ror	r24
 97e:	08 95       	ret
 980:	12 16       	cp	r1, r18
 982:	13 06       	cpc	r1, r19
 984:	14 06       	cpc	r1, r20
 986:	55 1f       	adc	r21, r21
 988:	f2 cf       	rjmp	.-28     	; 0x96e <__fp_split3+0xe>
 98a:	46 95       	lsr	r20
 98c:	f1 df       	rcall	.-30     	; 0x970 <__fp_splitA>
 98e:	08 c0       	rjmp	.+16     	; 0x9a0 <__fp_splitA+0x30>
 990:	16 16       	cp	r1, r22
 992:	17 06       	cpc	r1, r23
 994:	18 06       	cpc	r1, r24
 996:	99 1f       	adc	r25, r25
 998:	f1 cf       	rjmp	.-30     	; 0x97c <__fp_splitA+0xc>
 99a:	86 95       	lsr	r24
 99c:	71 05       	cpc	r23, r1
 99e:	61 05       	cpc	r22, r1
 9a0:	08 94       	sec
 9a2:	08 95       	ret

Disassembly of section .text:

00000bf2 <__fp_zero>:
 bf2:	e8 94       	clt

00000bf4 <__fp_szero>:
 bf4:	bb 27       	eor	r27, r27
 bf6:	66 27       	eor	r22, r22
 bf8:	77 27       	eor	r23, r23
 bfa:	cb 01       	movw	r24, r22
 bfc:	97 f9       	bld	r25, 7
 bfe:	08 95       	ret

Disassembly of section .text:

00000c60 <__gesf2>:
 c60:	0e 94 8c 04 	call	0x918	; 0x918 <__fp_cmp>
 c64:	08 f4       	brcc	.+2      	; 0xc68 <__gesf2+0x8>
 c66:	8f ef       	ldi	r24, 0xFF	; 255
 c68:	08 95       	ret

Disassembly of section .text:

00000c6a <__mulsf3>:
 c6a:	0e 94 d4 01 	call	0x3a8	; 0x3a8 <__mulsf3x>
 c6e:	0c 94 8e 05 	jmp	0xb1c	; 0xb1c <__fp_round>

Disassembly of section .text:

000003a8 <__mulsf3x>:
 3a8:	0f c0       	rjmp	.+30     	; 0x3c8 <__mulsf3x+0x20>
 3aa:	0e 94 00 06 	call	0xc00	; 0xc00 <__fp_pscA>
 3ae:	38 f0       	brcs	.+14     	; 0x3be <__mulsf3x+0x16>
 3b0:	0e 94 07 06 	call	0xc0e	; 0xc0e <__fp_pscB>
 3b4:	20 f0       	brcs	.+8      	; 0x3be <__mulsf3x+0x16>
 3b6:	95 23       	and	r25, r21
 3b8:	11 f0       	breq	.+4      	; 0x3be <__mulsf3x+0x16>
 3ba:	0c 94 1a 06 	jmp	0xc34	; 0xc34 <__fp_inf>
 3be:	0c 94 39 06 	jmp	0xc72	; 0xc72 <__fp_nan>
 3c2:	11 24       	eor	r1, r1
 3c4:	0c 94 fa 05 	jmp	0xbf4	; 0xbf4 <__fp_szero>
 3c8:	0e 94 b0 04 	call	0x960	; 0x960 <__fp_split3>
 3cc:	70 f3       	brcs	.-36     	; 0x3aa <__mulsf3x+0x2>

000003ce <__mulsf3_pse>:
 3ce:	95 9f       	mul	r25, r21
 3d0:	c1 f3       	breq	.-16     	; 0x3c2 <__mulsf3x+0x1a>
 3d2:	95 0f       	add	r25, r21
 3d4:	50 e0       	ldi	r21, 0x00	; 0
 3d6:	55 1f       	adc	r21, r21
 3d8:	62 9f       	mul	r22, r18
 3da:	f0 01       	movw	r30, r0
 3dc:	72 9f       	mul	r23, r18
 3de:	bb 27       	eor	r27, r27
 3e0:	f0 0d       	add	r31, r0
 3e2:	b1 1d       	adc	r27, r1
 3e4:	63 9f       	mul	r22, r19
 3e6:	aa 27       	eor	r26, r26
 3e8:	f0 0d       	add	r31, r0
 3ea:	b1 1d       	adc	r27, r1
 3ec:	aa 1f       	adc	r26, r26
 3ee:	64 9f       	mul	r22, r20
 3f0:	66 27       	eor	r22, r22
 3f2:	b0 0d       	add	r27, r0
 3f4:	a1 1d       	adc	r26, r1
 3f6:	66 1f       	adc	r22, r22
 3f8:	82 9f       	mul	r24, r18
 3fa:	22 27       	eor	r18, r18
 3fc:	b0 0d       	add	r27, r0
 3fe:	a1 1d       	adc	r26, r1
 400:	62 1f       	adc	r22, r18
 402:	73 9f       	mul	r23, r19
 404:	b0 0d       	add	r27, r0
 406:	a1 1d       	adc	r26, r1
 408:	62 1f       	adc	r22, r18
 40a:	83 9f       	mul	r24, r19
 40c:	a0 0d       	add	r26, r0
 40e:	61 1d       	adc	r22, r1
 410:	22 1f       	adc	r18, r18
 412:	74 9f       	mul	r23, r20
 414:	33 27       	eor	r19, r19
 416:	a0 0d       	add	r26, r0
 418:	61 1d       	adc	r22, r1
 41a:	23 1f       	adc	r18, r19
 41c:	84 9f       	mul	r24, r20
 41e:	60 0d       	add	r22, r0
 420:	21 1d       	adc	r18, r1
 422:	82 2f       	mov	r24, r18
 424:	76 2f       	mov	r23, r22
 426:	6a 2f       	mov	r22, r26
 428:	11 24       	eor	r1, r1
 42a:	9f 57       	subi	r25, 0x7F	; 127
 42c:	50 40       	sbci	r21, 0x00	; 0
 42e:	9a f0       	brmi	.+38     	; 0x456 <__EEPROM_REGION_LENGTH__+0x56>
 430:	f1 f0       	breq	.+60     	; 0x46e <__EEPROM_REGION_LENGTH__+0x6e>
 432:	88 23       	and	r24, r24
 434:	4a f0       	brmi	.+18     	; 0x448 <__EEPROM_REGION_LENGTH__+0x48>
 436:	ee 0f       	add	r30, r30
 438:	ff 1f       	adc	r31, r31
 43a:	bb 1f       	adc	r27, r27
 43c:	66 1f       	adc	r22, r22
 43e:	77 1f       	adc	r23, r23
 440:	88 1f       	adc	r24, r24
 442:	91 50       	subi	r25, 0x01	; 1
 444:	50 40       	sbci	r21, 0x00	; 0
 446:	a9 f7       	brne	.-22     	; 0x432 <__EEPROM_REGION_LENGTH__+0x32>
 448:	9e 3f       	cpi	r25, 0xFE	; 254
 44a:	51 05       	cpc	r21, r1
 44c:	80 f0       	brcs	.+32     	; 0x46e <__EEPROM_REGION_LENGTH__+0x6e>
 44e:	0c 94 1a 06 	jmp	0xc34	; 0xc34 <__fp_inf>
 452:	0c 94 fa 05 	jmp	0xbf4	; 0xbf4 <__fp_szero>
 456:	5f 3f       	cpi	r21, 0xFF	; 255
 458:	e4 f3       	brlt	.-8      	; 0x452 <__EEPROM_REGION_LENGTH__+0x52>
 45a:	98 3e       	cpi	r25, 0xE8	; 232
 45c:	d4 f3       	brlt	.-12     	; 0x452 <__EEPROM_REGION_LENGTH__+0x52>
 45e:	86 95       	lsr	r24
 460:	77 95       	ror	r23
 462:	67 95       	ror	r22
 464:	b7 95       	ror	r27
 466:	f7 95       	ror	r31
 468:	e7 95       	ror	r30
 46a:	9f 5f       	subi	r25, 0xFF	; 255
 46c:	c1 f7       	brne	.-16     	; 0x45e <__EEPROM_REGION_LENGTH__+0x5e>
 46e:	fe 2b       	or	r31, r30
 470:	88 0f       	add	r24, r24
 472:	91 1d       	adc	r25, r1
 474:	96 95       	lsr	r25
 476:	87 95       	ror	r24
 478:	97 f9       	bld	r25, 7
 47a:	08 95       	ret

Disassembly of section .text:

00000c34 <__fp_inf>:
 c34:	97 f9       	bld	r25, 7
 c36:	9f 67       	ori	r25, 0x7F	; 127
 c38:	80 e8       	ldi	r24, 0x80	; 128
 c3a:	70 e0       	ldi	r23, 0x00	; 0
 c3c:	60 e0       	ldi	r22, 0x00	; 0
 c3e:	08 95       	ret

Disassembly of section .text:

00000c72 <__fp_nan>:
 c72:	9f ef       	ldi	r25, 0xFF	; 255
 c74:	80 ec       	ldi	r24, 0xC0	; 192
 c76:	08 95       	ret

Disassembly of section .text:

00000c00 <__fp_pscA>:
 c00:	00 24       	eor	r0, r0
 c02:	0a 94       	dec	r0
 c04:	16 16       	cp	r1, r22
 c06:	17 06       	cpc	r1, r23
 c08:	18 06       	cpc	r1, r24
 c0a:	09 06       	cpc	r0, r25
 c0c:	08 95       	ret

Disassembly of section .text:

00000c0e <__fp_pscB>:
 c0e:	00 24       	eor	r0, r0
 c10:	0a 94       	dec	r0
 c12:	12 16       	cp	r1, r18
 c14:	13 06       	cpc	r1, r19
 c16:	14 06       	cpc	r1, r20
 c18:	05 06       	cpc	r0, r21
 c1a:	08 95       	ret

Disassembly of section .text:

00000b1c <__fp_round>:
 b1c:	09 2e       	mov	r0, r25
 b1e:	03 94       	inc	r0
 b20:	00 0c       	add	r0, r0
 b22:	11 f4       	brne	.+4      	; 0xb28 <__fp_round+0xc>
 b24:	88 23       	and	r24, r24
 b26:	52 f0       	brmi	.+20     	; 0xb3c <__fp_round+0x20>
 b28:	bb 0f       	add	r27, r27
 b2a:	40 f4       	brcc	.+16     	; 0xb3c <__fp_round+0x20>
 b2c:	bf 2b       	or	r27, r31
 b2e:	11 f4       	brne	.+4      	; 0xb34 <__fp_round+0x18>
 b30:	60 ff       	sbrs	r22, 0
 b32:	04 c0       	rjmp	.+8      	; 0xb3c <__fp_round+0x20>
 b34:	6f 5f       	subi	r22, 0xFF	; 255
 b36:	7f 4f       	sbci	r23, 0xFF	; 255
 b38:	8f 4f       	sbci	r24, 0xFF	; 255
 b3a:	9f 4f       	sbci	r25, 0xFF	; 255
 b3c:	08 95       	ret

Disassembly of section .text.libgcc.div:

000009a4 <__udivmodsi4>:
 9a4:	a1 e2       	ldi	r26, 0x21	; 33
 9a6:	1a 2e       	mov	r1, r26
 9a8:	aa 1b       	sub	r26, r26
 9aa:	bb 1b       	sub	r27, r27
 9ac:	fd 01       	movw	r30, r26
 9ae:	0d c0       	rjmp	.+26     	; 0x9ca <__udivmodsi4_ep>

000009b0 <__udivmodsi4_loop>:
 9b0:	aa 1f       	adc	r26, r26
 9b2:	bb 1f       	adc	r27, r27
 9b4:	ee 1f       	adc	r30, r30
 9b6:	ff 1f       	adc	r31, r31
 9b8:	a2 17       	cp	r26, r18
 9ba:	b3 07       	cpc	r27, r19
 9bc:	e4 07       	cpc	r30, r20
 9be:	f5 07       	cpc	r31, r21
 9c0:	20 f0       	brcs	.+8      	; 0x9ca <__udivmodsi4_ep>
 9c2:	a2 1b       	sub	r26, r18
 9c4:	b3 0b       	sbc	r27, r19
 9c6:	e4 0b       	sbc	r30, r20
 9c8:	f5 0b       	sbc	r31, r21

000009ca <__udivmodsi4_ep>:
 9ca:	66 1f       	adc	r22, r22
 9cc:	77 1f       	adc	r23, r23
 9ce:	88 1f       	adc	r24, r24
 9d0:	99 1f       	adc	r25, r25
 9d2:	1a 94       	dec	r1
 9d4:	69 f7       	brne	.-38     	; 0x9b0 <__udivmodsi4_loop>
 9d6:	60 95       	com	r22
 9d8:	70 95       	com	r23
 9da:	80 95       	com	r24
 9dc:	90 95       	com	r25
 9de:	9b 01       	movw	r18, r22
 9e0:	ac 01       	movw	r20, r24
 9e2:	bd 01       	movw	r22, r26
 9e4:	cf 01       	movw	r24, r30
 9e6:	08 95       	ret

Disassembly of section .text.libgcc.div:

00000aca <__divmodsi4>:
 aca:	05 2e       	mov	r0, r21
 acc:	97 fb       	bst	r25, 7
 ace:	1e f4       	brtc	.+6      	; 0xad6 <__divmodsi4+0xc>
 ad0:	00 94       	com	r0
 ad2:	0e 94 ea 05 	call	0xbd4	; 0xbd4 <__negsi2>
 ad6:	57 fd       	sbrc	r21, 7
 ad8:	07 d0       	rcall	.+14     	; 0xae8 <__divmodsi4_neg2>
 ada:	0e 94 d2 04 	call	0x9a4	; 0x9a4 <__udivmodsi4>
 ade:	07 fc       	sbrc	r0, 7
 ae0:	03 d0       	rcall	.+6      	; 0xae8 <__divmodsi4_neg2>
 ae2:	4e f4       	brtc	.+18     	; 0xaf6 <__divmodsi4_exit>
 ae4:	0c 94 ea 05 	jmp	0xbd4	; 0xbd4 <__negsi2>

00000ae8 <__divmodsi4_neg2>:
 ae8:	50 95       	com	r21
 aea:	40 95       	com	r20
 aec:	30 95       	com	r19
 aee:	21 95       	neg	r18
 af0:	3f 4f       	sbci	r19, 0xFF	; 255
 af2:	4f 4f       	sbci	r20, 0xFF	; 255
 af4:	5f 4f       	sbci	r21, 0xFF	; 255

00000af6 <__divmodsi4_exit>:
 af6:	08 95       	ret

Disassembly of section .text.libgcc.div:

00000bd4 <__negsi2>:
 bd4:	90 95       	com	r25
 bd6:	80 95       	com	r24
 bd8:	70 95       	com	r23
 bda:	61 95       	neg	r22
 bdc:	7f 4f       	sbci	r23, 0xFF	; 255
 bde:	8f 4f       	sbci	r24, 0xFF	; 255
 be0:	9f 4f       	sbci	r25, 0xFF	; 255
 be2:	08 95       	ret

Disassembly of section .text.libgcc:

00000c40 <__tablejump2__>:
 c40:	ee 0f       	add	r30, r30
 c42:	ff 1f       	adc	r31, r31
 c44:	05 90       	lpm	r0, Z+
 c46:	f4 91       	lpm	r31, Z
 c48:	e0 2d       	mov	r30, r0
 c4a:	09 94       	ijmp

Disassembly of section .text.__dummy_fini:

00000c80 <_fini>:
 c80:	08 95       	ret

Disassembly of section .text.__dummy_funcs_on_exit:

00000c82 <__funcs_on_exit>:
 c82:	08 95       	ret

Disassembly of section .text.__dummy_simulator_exit:

00000c84 <__simulator_exit>:
 c84:	08 95       	ret

Disassembly of section .text.exit:

00000bac <exit>:
 bac:	ec 01       	movw	r28, r24
 bae:	0e 94 41 06 	call	0xc82	; 0xc82 <__funcs_on_exit>
 bb2:	0e 94 40 06 	call	0xc80	; 0xc80 <_fini>
 bb6:	ce 01       	movw	r24, r28
 bb8:	0e 94 42 06 	call	0xc84	; 0xc84 <__simulator_exit>
 bbc:	ce 01       	movw	r24, r28
 bbe:	0e 94 3e 06 	call	0xc7c	; 0xc7c <_Exit>

Disassembly of section .text._Exit:

00000c7c <_Exit>:
 c7c:	0e 94 60 00 	call	0xc0	; 0xc0 <_exit>

Disassembly of section .text.avrlibc:

00000bc2 <eeprom_read_byte>:
 bc2:	cb 01       	movw	r24, r22
 bc4:	e1 99       	sbic	0x1c, 1	; 28
 bc6:	fe cf       	rjmp	.-4      	; 0xbc4 <eeprom_read_byte+0x2>
 bc8:	9f bb       	out	0x1f, r25	; 31
 bca:	8e bb       	out	0x1e, r24	; 30
 bcc:	e0 9a       	sbi	0x1c, 0	; 28
 bce:	99 27       	eor	r25, r25
 bd0:	8d b3       	in	r24, 0x1d	; 29
 bd2:	08 95       	ret

Disassembly of section .text.avrlibc:

00000b3e <eeprom_update_byte>:
 b3e:	26 2f       	mov	r18, r22

00000b40 <eeprom_update_r18>:
 b40:	e1 99       	sbic	0x1c, 1	; 28
 b42:	fe cf       	rjmp	.-4      	; 0xb40 <eeprom_update_r18>
 b44:	9f bb       	out	0x1f, r25	; 31
 b46:	8e bb       	out	0x1e, r24	; 30
 b48:	e0 9a       	sbi	0x1c, 0	; 28
 b4a:	01 97       	sbiw	r24, 0x01	; 1
 b4c:	0d b2       	in	r0, 0x1d	; 29
 b4e:	02 16       	cp	r0, r18
 b50:	31 f0       	breq	.+12     	; 0xb5e <eeprom_update_r18+0x1e>
 b52:	2d bb       	out	0x1d, r18	; 29
 b54:	0f b6       	in	r0, 0x3f	; 63
 b56:	f8 94       	cli
 b58:	e2 9a       	sbi	0x1c, 2	; 28
 b5a:	e1 9a       	sbi	0x1c, 1	; 28
 b5c:	0f be       	out	0x3f, r0	; 63
 b5e:	08 95       	ret

Disassembly of section .text.avrlibc:

00000b7c <eeprom_write_byte>:
 b7c:	26 2f       	mov	r18, r22

00000b7e <eeprom_write_r18>:
 b7e:	e1 99       	sbic	0x1c, 1	; 28
 b80:	fe cf       	rjmp	.-4      	; 0xb7e <eeprom_write_r18>
 b82:	9f bb       	out	0x1f, r25	; 31
 b84:	8e bb       	out	0x1e, r24	; 30
 b86:	2d bb       	out	0x1d, r18	; 29
 b88:	0f b6       	in	r0, 0x3f	; 63
 b8a:	f8 94       	cli
 b8c:	e2 9a       	sbi	0x1c, 2	; 28
 b8e:	e1 9a       	sbi	0x1c, 1	; 28
 b90:	0f be       	out	0x3f, r0	; 63
 b92:	01 96       	adiw	r24, 0x01	; 1
 b94:	08 95       	ret
